	.file	"better_println.cc"
	.section	.rodata.str1.1,"aMS",@progbits,1
.LC0:
	.string	"/usr/include/boost/variant/detail/visitation_impl.hpp"
.LC1:
	.string	"false"
	.text
	.type	_ZN5boost6detail7variant22visitation_impl_invokeINS1_9destroyerEPvNS_7variantIiSsdNS1_5void_ES6_S6_S6_S6_S6_S6_S6_S6_S6_S6_S6_S6_S6_S6_S6_S6_E18has_fallback_type_EEENT_11result_typeEiRS9_T0_PNS1_22apply_visitor_unrolledET1_l.isra.50, @function
_ZN5boost6detail7variant22visitation_impl_invokeINS1_9destroyerEPvNS_7variantIiSsdNS1_5void_ES6_S6_S6_S6_S6_S6_S6_S6_S6_S6_S6_S6_S6_S6_S6_S6_E18has_fallback_type_EEENT_11result_typeEiRS9_T0_PNS1_22apply_visitor_unrolledET1_l.isra.50:
.LFB2212:
	.cfi_startproc
	pushl	%ebp
	.cfi_def_cfa_offset 8
	.cfi_offset 5, -8
	movl	%esp, %ebp
	.cfi_def_cfa_register 5
	subl	$8, %esp
	pushl	$_ZZN5boost6detail7variant22visitation_impl_invokeINS1_9destroyerEPvNS_7variantIiSsdNS1_5void_ES6_S6_S6_S6_S6_S6_S6_S6_S6_S6_S6_S6_S6_S6_S6_S6_E18has_fallback_type_EEENT_11result_typeEiRS9_T0_PNS1_22apply_visitor_unrolledET1_lE19__PRETTY_FUNCTION__
	.cfi_escape 0x2e,0x4
	pushl	$178
	.cfi_escape 0x2e,0x8
	pushl	$.LC0
	.cfi_escape 0x2e,0xc
	pushl	$.LC1
	.cfi_escape 0x2e,0x10
	call	__assert_fail
	.cfi_escape 0x2e,0
	.cfi_endproc
.LFE2212:
	.size	_ZN5boost6detail7variant22visitation_impl_invokeINS1_9destroyerEPvNS_7variantIiSsdNS1_5void_ES6_S6_S6_S6_S6_S6_S6_S6_S6_S6_S6_S6_S6_S6_S6_S6_E18has_fallback_type_EEENT_11result_typeEiRS9_T0_PNS1_22apply_visitor_unrolledET1_l.isra.50, .-_ZN5boost6detail7variant22visitation_impl_invokeINS1_9destroyerEPvNS_7variantIiSsdNS1_5void_ES6_S6_S6_S6_S6_S6_S6_S6_S6_S6_S6_S6_S6_S6_S6_S6_E18has_fallback_type_EEENT_11result_typeEiRS9_T0_PNS1_22apply_visitor_unrolledET1_l.isra.50
	.type	_ZN5boost6detail7variant22visitation_impl_invokeINS1_14invoke_visitorINS1_7printerISoEEEEPKvNS_7variantIiSsdNS1_5void_ESA_SA_SA_SA_SA_SA_SA_SA_SA_SA_SA_SA_SA_SA_SA_SA_E18has_fallback_type_EEENT_11result_typeEiRSD_T0_PNS1_22apply_visitor_unrolledET1_l.isra.52, @function
_ZN5boost6detail7variant22visitation_impl_invokeINS1_14invoke_visitorINS1_7printerISoEEEEPKvNS_7variantIiSsdNS1_5void_ESA_SA_SA_SA_SA_SA_SA_SA_SA_SA_SA_SA_SA_SA_SA_SA_E18has_fallback_type_EEENT_11result_typeEiRSD_T0_PNS1_22apply_visitor_unrolledET1_l.isra.52:
.LFB2214:
	.cfi_startproc
	pushl	%ebp
	.cfi_def_cfa_offset 8
	.cfi_offset 5, -8
	movl	%esp, %ebp
	.cfi_def_cfa_register 5
	subl	$8, %esp
	pushl	$_ZZN5boost6detail7variant22visitation_impl_invokeINS1_14invoke_visitorINS1_7printerISoEEEEPKvNS_7variantIiSsdNS1_5void_ESA_SA_SA_SA_SA_SA_SA_SA_SA_SA_SA_SA_SA_SA_SA_SA_E18has_fallback_type_EEENT_11result_typeEiRSD_T0_PNS1_22apply_visitor_unrolledET1_lE19__PRETTY_FUNCTION__
	.cfi_escape 0x2e,0x4
	pushl	$178
	.cfi_escape 0x2e,0x8
	pushl	$.LC0
	.cfi_escape 0x2e,0xc
	pushl	$.LC1
	.cfi_escape 0x2e,0x10
	call	__assert_fail
	.cfi_escape 0x2e,0
	.cfi_endproc
.LFE2214:
	.size	_ZN5boost6detail7variant22visitation_impl_invokeINS1_14invoke_visitorINS1_7printerISoEEEEPKvNS_7variantIiSsdNS1_5void_ESA_SA_SA_SA_SA_SA_SA_SA_SA_SA_SA_SA_SA_SA_SA_SA_E18has_fallback_type_EEENT_11result_typeEiRSD_T0_PNS1_22apply_visitor_unrolledET1_l.isra.52, .-_ZN5boost6detail7variant22visitation_impl_invokeINS1_14invoke_visitorINS1_7printerISoEEEEPKvNS_7variantIiSsdNS1_5void_ESA_SA_SA_SA_SA_SA_SA_SA_SA_SA_SA_SA_SA_SA_SA_SA_E18has_fallback_type_EEENT_11result_typeEiRSD_T0_PNS1_22apply_visitor_unrolledET1_l.isra.52
	.type	_ZN5boost6detail7variant22visitation_impl_invokeINS_7variantIiSsdNS1_5void_ES4_S4_S4_S4_S4_S4_S4_S4_S4_S4_S4_S4_S4_S4_S4_S4_E17convert_copy_intoEPvNS5_18has_fallback_type_EEENT_11result_typeEiRS9_T0_PNS1_22apply_visitor_unrolledET1_l.isra.55, @function
_ZN5boost6detail7variant22visitation_impl_invokeINS_7variantIiSsdNS1_5void_ES4_S4_S4_S4_S4_S4_S4_S4_S4_S4_S4_S4_S4_S4_S4_S4_E17convert_copy_intoEPvNS5_18has_fallback_type_EEENT_11result_typeEiRS9_T0_PNS1_22apply_visitor_unrolledET1_l.isra.55:
.LFB2217:
	.cfi_startproc
	pushl	%ebp
	.cfi_def_cfa_offset 8
	.cfi_offset 5, -8
	movl	%esp, %ebp
	.cfi_def_cfa_register 5
	subl	$8, %esp
	pushl	$_ZZN5boost6detail7variant22visitation_impl_invokeINS_7variantIiSsdNS1_5void_ES4_S4_S4_S4_S4_S4_S4_S4_S4_S4_S4_S4_S4_S4_S4_S4_E17convert_copy_intoEPvNS5_18has_fallback_type_EEENT_11result_typeEiRS9_T0_PNS1_22apply_visitor_unrolledET1_lE19__PRETTY_FUNCTION__
	.cfi_escape 0x2e,0x4
	pushl	$178
	.cfi_escape 0x2e,0x8
	pushl	$.LC0
	.cfi_escape 0x2e,0xc
	pushl	$.LC1
	.cfi_escape 0x2e,0x10
	call	__assert_fail
	.cfi_escape 0x2e,0
	.cfi_endproc
.LFE2217:
	.size	_ZN5boost6detail7variant22visitation_impl_invokeINS_7variantIiSsdNS1_5void_ES4_S4_S4_S4_S4_S4_S4_S4_S4_S4_S4_S4_S4_S4_S4_S4_E17convert_copy_intoEPvNS5_18has_fallback_type_EEENT_11result_typeEiRS9_T0_PNS1_22apply_visitor_unrolledET1_l.isra.55, .-_ZN5boost6detail7variant22visitation_impl_invokeINS_7variantIiSsdNS1_5void_ES4_S4_S4_S4_S4_S4_S4_S4_S4_S4_S4_S4_S4_S4_S4_S4_E17convert_copy_intoEPvNS5_18has_fallback_type_EEENT_11result_typeEiRS9_T0_PNS1_22apply_visitor_unrolledET1_l.isra.55
	.type	_ZN5boost6detail7variant22visitation_impl_invokeINS1_9copy_intoEPKvNS_7variantIiSsdNS1_5void_ES7_S7_S7_S7_S7_S7_S7_S7_S7_S7_S7_S7_S7_S7_S7_S7_E18has_fallback_type_EEENT_11result_typeEiRSA_T0_PNS1_22apply_visitor_unrolledET1_l.isra.89, @function
_ZN5boost6detail7variant22visitation_impl_invokeINS1_9copy_intoEPKvNS_7variantIiSsdNS1_5void_ES7_S7_S7_S7_S7_S7_S7_S7_S7_S7_S7_S7_S7_S7_S7_S7_E18has_fallback_type_EEENT_11result_typeEiRSA_T0_PNS1_22apply_visitor_unrolledET1_l.isra.89:
.LFB2251:
	.cfi_startproc
	pushl	%ebp
	.cfi_def_cfa_offset 8
	.cfi_offset 5, -8
	movl	%esp, %ebp
	.cfi_def_cfa_register 5
	subl	$8, %esp
	pushl	$_ZZN5boost6detail7variant22visitation_impl_invokeINS1_9copy_intoEPKvNS_7variantIiSsdNS1_5void_ES7_S7_S7_S7_S7_S7_S7_S7_S7_S7_S7_S7_S7_S7_S7_S7_E18has_fallback_type_EEENT_11result_typeEiRSA_T0_PNS1_22apply_visitor_unrolledET1_lE19__PRETTY_FUNCTION__
	.cfi_escape 0x2e,0x4
	pushl	$178
	.cfi_escape 0x2e,0x8
	pushl	$.LC0
	.cfi_escape 0x2e,0xc
	pushl	$.LC1
	.cfi_escape 0x2e,0x10
	call	__assert_fail
	.cfi_escape 0x2e,0
	.cfi_endproc
.LFE2251:
	.size	_ZN5boost6detail7variant22visitation_impl_invokeINS1_9copy_intoEPKvNS_7variantIiSsdNS1_5void_ES7_S7_S7_S7_S7_S7_S7_S7_S7_S7_S7_S7_S7_S7_S7_S7_E18has_fallback_type_EEENT_11result_typeEiRSA_T0_PNS1_22apply_visitor_unrolledET1_l.isra.89, .-_ZN5boost6detail7variant22visitation_impl_invokeINS1_9copy_intoEPKvNS_7variantIiSsdNS1_5void_ES7_S7_S7_S7_S7_S7_S7_S7_S7_S7_S7_S7_S7_S7_S7_S7_E18has_fallback_type_EEENT_11result_typeEiRSA_T0_PNS1_22apply_visitor_unrolledET1_l.isra.89
	.section	.text._ZN5boost6detail7variant15visitation_implIN4mpl_4int_ILi0EEENS1_20visitation_impl_stepINS_3mpl6l_iterINS7_6l_itemINS3_5long_ILl3EEEiNS9_INSA_ILl2EEESsNS9_INSA_ILl1EEEdNS7_5l_endEEEEEEEEENS8_ISE_EEEENS1_9destroyerEPvNS_7variantIiSsdNS1_5void_ESO_SO_SO_SO_SO_SO_SO_SO_SO_SO_SO_SO_SO_SO_SO_SO_E18has_fallback_type_EEENT1_11result_typeEiiRSR_T2_NS3_5bool_ILb0EEET3_PT_PT0_,"axG",@progbits,_ZN5boost6detail7variant15visitation_implIN4mpl_4int_ILi0EEENS1_20visitation_impl_stepINS_3mpl6l_iterINS7_6l_itemINS3_5long_ILl3EEEiNS9_INSA_ILl2EEESsNS9_INSA_ILl1EEEdNS7_5l_endEEEEEEEEENS8_ISE_EEEENS1_9destroyerEPvNS_7variantIiSsdNS1_5void_ESO_SO_SO_SO_SO_SO_SO_SO_SO_SO_SO_SO_SO_SO_SO_SO_E18has_fallback_type_EEENT1_11result_typeEiiRSR_T2_NS3_5bool_ILb0EEET3_PT_PT0_,comdat
	.weak	_ZN5boost6detail7variant15visitation_implIN4mpl_4int_ILi0EEENS1_20visitation_impl_stepINS_3mpl6l_iterINS7_6l_itemINS3_5long_ILl3EEEiNS9_INSA_ILl2EEESsNS9_INSA_ILl1EEEdNS7_5l_endEEEEEEEEENS8_ISE_EEEENS1_9destroyerEPvNS_7variantIiSsdNS1_5void_ESO_SO_SO_SO_SO_SO_SO_SO_SO_SO_SO_SO_SO_SO_SO_SO_E18has_fallback_type_EEENT1_11result_typeEiiRSR_T2_NS3_5bool_ILb0EEET3_PT_PT0_
	.type	_ZN5boost6detail7variant15visitation_implIN4mpl_4int_ILi0EEENS1_20visitation_impl_stepINS_3mpl6l_iterINS7_6l_itemINS3_5long_ILl3EEEiNS9_INSA_ILl2EEESsNS9_INSA_ILl1EEEdNS7_5l_endEEEEEEEEENS8_ISE_EEEENS1_9destroyerEPvNS_7variantIiSsdNS1_5void_ESO_SO_SO_SO_SO_SO_SO_SO_SO_SO_SO_SO_SO_SO_SO_SO_E18has_fallback_type_EEENT1_11result_typeEiiRSR_T2_NS3_5bool_ILb0EEET3_PT_PT0_, @function
_ZN5boost6detail7variant15visitation_implIN4mpl_4int_ILi0EEENS1_20visitation_impl_stepINS_3mpl6l_iterINS7_6l_itemINS3_5long_ILl3EEEiNS9_INSA_ILl2EEESsNS9_INSA_ILl1EEEdNS7_5l_endEEEEEEEEENS8_ISE_EEEENS1_9destroyerEPvNS_7variantIiSsdNS1_5void_ESO_SO_SO_SO_SO_SO_SO_SO_SO_SO_SO_SO_SO_SO_SO_SO_E18has_fallback_type_EEENT1_11result_typeEiiRSR_T2_NS3_5bool_ILb0EEET3_PT_PT0_:
.LFB2073:
	.cfi_startproc
	pushl	%ebp
	.cfi_def_cfa_offset 8
	.cfi_offset 5, -8
	movl	%esp, %ebp
	.cfi_def_cfa_register 5
	subl	$8, %esp
	movl	12(%ebp), %eax
	movl	20(%ebp), %edx
	cmpl	$19, %eax
	ja	.L6
	jmp	*.L26(,%eax,4)
	.section	.rodata._ZN5boost6detail7variant15visitation_implIN4mpl_4int_ILi0EEENS1_20visitation_impl_stepINS_3mpl6l_iterINS7_6l_itemINS3_5long_ILl3EEEiNS9_INSA_ILl2EEESsNS9_INSA_ILl1EEEdNS7_5l_endEEEEEEEEENS8_ISE_EEEENS1_9destroyerEPvNS_7variantIiSsdNS1_5void_ESO_SO_SO_SO_SO_SO_SO_SO_SO_SO_SO_SO_SO_SO_SO_SO_E18has_fallback_type_EEENT1_11result_typeEiiRSR_T2_NS3_5bool_ILb0EEET3_PT_PT0_,"aG",@progbits,_ZN5boost6detail7variant15visitation_implIN4mpl_4int_ILi0EEENS1_20visitation_impl_stepINS_3mpl6l_iterINS7_6l_itemINS3_5long_ILl3EEEiNS9_INSA_ILl2EEESsNS9_INSA_ILl1EEEdNS7_5l_endEEEEEEEEENS8_ISE_EEEENS1_9destroyerEPvNS_7variantIiSsdNS1_5void_ESO_SO_SO_SO_SO_SO_SO_SO_SO_SO_SO_SO_SO_SO_SO_SO_E18has_fallback_type_EEENT1_11result_typeEiiRSR_T2_NS3_5bool_ILb0EEET3_PT_PT0_,comdat
	.align 4
	.align 4
.L26:
	.long	.L5
	.long	.L8
	.long	.L5
	.long	.L25
	.long	.L25
	.long	.L25
	.long	.L25
	.long	.L25
	.long	.L25
	.long	.L25
	.long	.L25
	.long	.L25
	.long	.L25
	.long	.L25
	.long	.L25
	.long	.L25
	.long	.L25
	.long	.L25
	.long	.L25
	.long	.L25
	.section	.text._ZN5boost6detail7variant15visitation_implIN4mpl_4int_ILi0EEENS1_20visitation_impl_stepINS_3mpl6l_iterINS7_6l_itemINS3_5long_ILl3EEEiNS9_INSA_ILl2EEESsNS9_INSA_ILl1EEEdNS7_5l_endEEEEEEEEENS8_ISE_EEEENS1_9destroyerEPvNS_7variantIiSsdNS1_5void_ESO_SO_SO_SO_SO_SO_SO_SO_SO_SO_SO_SO_SO_SO_SO_SO_E18has_fallback_type_EEENT1_11result_typeEiiRSR_T2_NS3_5bool_ILb0EEET3_PT_PT0_,"axG",@progbits,_ZN5boost6detail7variant15visitation_implIN4mpl_4int_ILi0EEENS1_20visitation_impl_stepINS_3mpl6l_iterINS7_6l_itemINS3_5long_ILl3EEEiNS9_INSA_ILl2EEESsNS9_INSA_ILl1EEEdNS7_5l_endEEEEEEEEENS8_ISE_EEEENS1_9destroyerEPvNS_7variantIiSsdNS1_5void_ESO_SO_SO_SO_SO_SO_SO_SO_SO_SO_SO_SO_SO_SO_SO_SO_E18has_fallback_type_EEENT1_11result_typeEiiRSR_T2_NS3_5bool_ILb0EEET3_PT_PT0_,comdat
.L8:
	movl	%edx, 8(%ebp)
	leave
	.cfi_remember_state
	.cfi_restore 5
	.cfi_def_cfa 4, 4
	jmp	_ZNSsD1Ev
.L25:
	.cfi_restore_state
	call	_ZN5boost6detail7variant22visitation_impl_invokeINS1_9destroyerEPvNS_7variantIiSsdNS1_5void_ES6_S6_S6_S6_S6_S6_S6_S6_S6_S6_S6_S6_S6_S6_S6_S6_E18has_fallback_type_EEENT_11result_typeEiRS9_T0_PNS1_22apply_visitor_unrolledET1_l.isra.50
.L6:
	pushl	$_ZZN5boost6detail7variant15visitation_implIN4mpl_4int_ILi20EEENS1_20visitation_impl_stepINS_3mpl6l_iterINS7_5l_endEEESA_EENS1_9destroyerEPvNS_7variantIiSsdNS1_5void_ESF_SF_SF_SF_SF_SF_SF_SF_SF_SF_SF_SF_SF_SF_SF_SF_E18has_fallback_type_EEENT1_11result_typeEiiRSI_T2_NS3_5bool_ILb1EEET3_PT_PT0_E19__PRETTY_FUNCTION__
	.cfi_escape 0x2e,0x4
	pushl	$203
	.cfi_escape 0x2e,0x8
	pushl	$.LC0
	.cfi_escape 0x2e,0xc
	pushl	$.LC1
	.cfi_escape 0x2e,0x10
	call	__assert_fail
	.cfi_escape 0x2e,0
.L5:
	leave
	.cfi_restore 5
	.cfi_def_cfa 4, 4
	ret
	.cfi_endproc
.LFE2073:
	.size	_ZN5boost6detail7variant15visitation_implIN4mpl_4int_ILi0EEENS1_20visitation_impl_stepINS_3mpl6l_iterINS7_6l_itemINS3_5long_ILl3EEEiNS9_INSA_ILl2EEESsNS9_INSA_ILl1EEEdNS7_5l_endEEEEEEEEENS8_ISE_EEEENS1_9destroyerEPvNS_7variantIiSsdNS1_5void_ESO_SO_SO_SO_SO_SO_SO_SO_SO_SO_SO_SO_SO_SO_SO_SO_E18has_fallback_type_EEENT1_11result_typeEiiRSR_T2_NS3_5bool_ILb0EEET3_PT_PT0_, .-_ZN5boost6detail7variant15visitation_implIN4mpl_4int_ILi0EEENS1_20visitation_impl_stepINS_3mpl6l_iterINS7_6l_itemINS3_5long_ILl3EEEiNS9_INSA_ILl2EEESsNS9_INSA_ILl1EEEdNS7_5l_endEEEEEEEEENS8_ISE_EEEENS1_9destroyerEPvNS_7variantIiSsdNS1_5void_ESO_SO_SO_SO_SO_SO_SO_SO_SO_SO_SO_SO_SO_SO_SO_SO_E18has_fallback_type_EEENT1_11result_typeEiiRSR_T2_NS3_5bool_ILb0EEET3_PT_PT0_
	.section	.text._ZN5boost7variantIiSsdNS_6detail7variant5void_ES3_S3_S3_S3_S3_S3_S3_S3_S3_S3_S3_S3_S3_S3_S3_S3_ED2Ev,"axG",@progbits,_ZN5boost7variantIiSsdNS_6detail7variant5void_ES3_S3_S3_S3_S3_S3_S3_S3_S3_S3_S3_S3_S3_S3_S3_S3_ED5Ev,comdat
	.align 2
	.weak	_ZN5boost7variantIiSsdNS_6detail7variant5void_ES3_S3_S3_S3_S3_S3_S3_S3_S3_S3_S3_S3_S3_S3_S3_S3_ED2Ev
	.type	_ZN5boost7variantIiSsdNS_6detail7variant5void_ES3_S3_S3_S3_S3_S3_S3_S3_S3_S3_S3_S3_S3_S3_S3_S3_ED2Ev, @function
_ZN5boost7variantIiSsdNS_6detail7variant5void_ES3_S3_S3_S3_S3_S3_S3_S3_S3_S3_S3_S3_S3_S3_S3_S3_ED2Ev:
.LFB1906:
	.cfi_startproc
	pushl	%ebp
	.cfi_def_cfa_offset 8
	.cfi_offset 5, -8
	movl	%esp, %ebp
	.cfi_def_cfa_register 5
	subl	$24, %esp
	movl	8(%ebp), %eax
	leal	4(%eax), %ecx
	movl	(%eax), %eax
	pushl	$0
	.cfi_escape 0x2e,0x4
	pushl	$0
	.cfi_escape 0x2e,0x8
	pushl	$0
	.cfi_escape 0x2e,0xc
	pushl	$0
	.cfi_escape 0x2e,0x10
	cltd
	pushl	%ecx
	.cfi_escape 0x2e,0x14
	xorl	%eax, %edx
	leal	-9(%ebp), %ecx
	pushl	%ecx
	.cfi_escape 0x2e,0x18
	pushl	%edx
	.cfi_escape 0x2e,0x1c
	pushl	%eax
	.cfi_escape 0x2e,0x20
	call	_ZN5boost6detail7variant15visitation_implIN4mpl_4int_ILi0EEENS1_20visitation_impl_stepINS_3mpl6l_iterINS7_6l_itemINS3_5long_ILl3EEEiNS9_INSA_ILl2EEESsNS9_INSA_ILl1EEEdNS7_5l_endEEEEEEEEENS8_ISE_EEEENS1_9destroyerEPvNS_7variantIiSsdNS1_5void_ESO_SO_SO_SO_SO_SO_SO_SO_SO_SO_SO_SO_SO_SO_SO_SO_E18has_fallback_type_EEENT1_11result_typeEiiRSR_T2_NS3_5bool_ILb0EEET3_PT_PT0_
	addl	$32, %esp
	.cfi_escape 0x2e,0
	leave
	.cfi_restore 5
	.cfi_def_cfa 4, 4
	ret
	.cfi_endproc
.LFE1906:
	.size	_ZN5boost7variantIiSsdNS_6detail7variant5void_ES3_S3_S3_S3_S3_S3_S3_S3_S3_S3_S3_S3_S3_S3_S3_S3_ED2Ev, .-_ZN5boost7variantIiSsdNS_6detail7variant5void_ES3_S3_S3_S3_S3_S3_S3_S3_S3_S3_S3_S3_S3_S3_S3_S3_ED2Ev
	.section	.text._ZNSt6vectorIN5boost7variantIiSsdNS0_6detail7variant5void_ES4_S4_S4_S4_S4_S4_S4_S4_S4_S4_S4_S4_S4_S4_S4_S4_EESaIS5_EED2Ev,"axG",@progbits,_ZNSt6vectorIN5boost7variantIiSsdNS0_6detail7variant5void_ES4_S4_S4_S4_S4_S4_S4_S4_S4_S4_S4_S4_S4_S4_S4_S4_EESaIS5_EED5Ev,comdat
	.align 2
	.weak	_ZNSt6vectorIN5boost7variantIiSsdNS0_6detail7variant5void_ES4_S4_S4_S4_S4_S4_S4_S4_S4_S4_S4_S4_S4_S4_S4_S4_EESaIS5_EED2Ev
	.type	_ZNSt6vectorIN5boost7variantIiSsdNS0_6detail7variant5void_ES4_S4_S4_S4_S4_S4_S4_S4_S4_S4_S4_S4_S4_S4_S4_S4_EESaIS5_EED2Ev, @function
_ZNSt6vectorIN5boost7variantIiSsdNS0_6detail7variant5void_ES4_S4_S4_S4_S4_S4_S4_S4_S4_S4_S4_S4_S4_S4_S4_S4_EESaIS5_EED2Ev:
.LFB1895:
	.cfi_startproc
	pushl	%ebp
	.cfi_def_cfa_offset 8
	.cfi_offset 5, -8
	movl	%esp, %ebp
	.cfi_def_cfa_register 5
	pushl	%edi
	pushl	%esi
	pushl	%ebx
	subl	$12, %esp
	movl	8(%ebp), %esi
	.cfi_offset 3, -20
	.cfi_offset 6, -16
	.cfi_offset 7, -12
	movl	4(%esi), %edi
	movl	(%esi), %ebx
	jmp	.L35
.L36:
	subl	$12, %esp
	.cfi_escape 0x2e,0xc
	pushl	%ebx
	.cfi_escape 0x2e,0x10
	addl	$12, %ebx
	call	_ZN5boost7variantIiSsdNS_6detail7variant5void_ES3_S3_S3_S3_S3_S3_S3_S3_S3_S3_S3_S3_S3_S3_S3_S3_ED1Ev
	addl	$16, %esp
	.cfi_escape 0x2e,0
.L35:
	cmpl	%edi, %ebx
	jne	.L36
	movl	(%esi), %eax
	testl	%eax, %eax
	je	.L34
	movl	%eax, 8(%ebp)
	leal	-12(%ebp), %esp
	popl	%ebx
	.cfi_remember_state
	.cfi_restore 3
	popl	%esi
	.cfi_restore 6
	popl	%edi
	.cfi_restore 7
	popl	%ebp
	.cfi_def_cfa 4, 4
	.cfi_restore 5
	jmp	_ZdlPv
.L34:
	.cfi_restore_state
	leal	-12(%ebp), %esp
	popl	%ebx
	.cfi_restore 3
	popl	%esi
	.cfi_restore 6
	popl	%edi
	.cfi_restore 7
	popl	%ebp
	.cfi_def_cfa 4, 4
	.cfi_restore 5
	ret
	.cfi_endproc
.LFE1895:
	.size	_ZNSt6vectorIN5boost7variantIiSsdNS0_6detail7variant5void_ES4_S4_S4_S4_S4_S4_S4_S4_S4_S4_S4_S4_S4_S4_S4_S4_EESaIS5_EED2Ev, .-_ZNSt6vectorIN5boost7variantIiSsdNS0_6detail7variant5void_ES4_S4_S4_S4_S4_S4_S4_S4_S4_S4_S4_S4_S4_S4_S4_S4_EESaIS5_EED2Ev
	.section	.text._ZN5boost6detail7variant15visitation_implIN4mpl_4int_ILi0EEENS1_20visitation_impl_stepINS_3mpl6l_iterINS7_6l_itemINS3_5long_ILl3EEEiNS9_INSA_ILl2EEESsNS9_INSA_ILl1EEEdNS7_5l_endEEEEEEEEENS8_ISE_EEEENS1_14invoke_visitorINS1_7printerISoEEEEPKvNS_7variantIiSsdNS1_5void_ESS_SS_SS_SS_SS_SS_SS_SS_SS_SS_SS_SS_SS_SS_SS_SS_E18has_fallback_type_EEENT1_11result_typeEiiRSV_T2_NS3_5bool_ILb0EEET3_PT_PT0_,"axG",@progbits,_ZN5boost6detail7variant15visitation_implIN4mpl_4int_ILi0EEENS1_20visitation_impl_stepINS_3mpl6l_iterINS7_6l_itemINS3_5long_ILl3EEEiNS9_INSA_ILl2EEESsNS9_INSA_ILl1EEEdNS7_5l_endEEEEEEEEENS8_ISE_EEEENS1_14invoke_visitorINS1_7printerISoEEEEPKvNS_7variantIiSsdNS1_5void_ESS_SS_SS_SS_SS_SS_SS_SS_SS_SS_SS_SS_SS_SS_SS_SS_E18has_fallback_type_EEENT1_11result_typeEiiRSV_T2_NS3_5bool_ILb0EEET3_PT_PT0_,comdat
	.weak	_ZN5boost6detail7variant15visitation_implIN4mpl_4int_ILi0EEENS1_20visitation_impl_stepINS_3mpl6l_iterINS7_6l_itemINS3_5long_ILl3EEEiNS9_INSA_ILl2EEESsNS9_INSA_ILl1EEEdNS7_5l_endEEEEEEEEENS8_ISE_EEEENS1_14invoke_visitorINS1_7printerISoEEEEPKvNS_7variantIiSsdNS1_5void_ESS_SS_SS_SS_SS_SS_SS_SS_SS_SS_SS_SS_SS_SS_SS_SS_E18has_fallback_type_EEENT1_11result_typeEiiRSV_T2_NS3_5bool_ILb0EEET3_PT_PT0_
	.type	_ZN5boost6detail7variant15visitation_implIN4mpl_4int_ILi0EEENS1_20visitation_impl_stepINS_3mpl6l_iterINS7_6l_itemINS3_5long_ILl3EEEiNS9_INSA_ILl2EEESsNS9_INSA_ILl1EEEdNS7_5l_endEEEEEEEEENS8_ISE_EEEENS1_14invoke_visitorINS1_7printerISoEEEEPKvNS_7variantIiSsdNS1_5void_ESS_SS_SS_SS_SS_SS_SS_SS_SS_SS_SS_SS_SS_SS_SS_SS_E18has_fallback_type_EEENT1_11result_typeEiiRSV_T2_NS3_5bool_ILb0EEET3_PT_PT0_, @function
_ZN5boost6detail7variant15visitation_implIN4mpl_4int_ILi0EEENS1_20visitation_impl_stepINS_3mpl6l_iterINS7_6l_itemINS3_5long_ILl3EEEiNS9_INSA_ILl2EEESsNS9_INSA_ILl1EEEdNS7_5l_endEEEEEEEEENS8_ISE_EEEENS1_14invoke_visitorINS1_7printerISoEEEEPKvNS_7variantIiSsdNS1_5void_ESS_SS_SS_SS_SS_SS_SS_SS_SS_SS_SS_SS_SS_SS_SS_SS_E18has_fallback_type_EEENT1_11result_typeEiiRSV_T2_NS3_5bool_ILb0EEET3_PT_PT0_:
.LFB2074:
	.cfi_startproc
	pushl	%ebp
	.cfi_def_cfa_offset 8
	.cfi_offset 5, -8
	movl	%esp, %ebp
	.cfi_def_cfa_register 5
	subl	$8, %esp
	movl	12(%ebp), %ecx
	movl	16(%ebp), %eax
	movl	20(%ebp), %edx
	cmpl	$19, %ecx
	ja	.L43
	movl	(%eax), %eax
	jmp	*.L64(,%ecx,4)
	.section	.rodata._ZN5boost6detail7variant15visitation_implIN4mpl_4int_ILi0EEENS1_20visitation_impl_stepINS_3mpl6l_iterINS7_6l_itemINS3_5long_ILl3EEEiNS9_INSA_ILl2EEESsNS9_INSA_ILl1EEEdNS7_5l_endEEEEEEEEENS8_ISE_EEEENS1_14invoke_visitorINS1_7printerISoEEEEPKvNS_7variantIiSsdNS1_5void_ESS_SS_SS_SS_SS_SS_SS_SS_SS_SS_SS_SS_SS_SS_SS_SS_E18has_fallback_type_EEENT1_11result_typeEiiRSV_T2_NS3_5bool_ILb0EEET3_PT_PT0_,"aG",@progbits,_ZN5boost6detail7variant15visitation_implIN4mpl_4int_ILi0EEENS1_20visitation_impl_stepINS_3mpl6l_iterINS7_6l_itemINS3_5long_ILl3EEEiNS9_INSA_ILl2EEESsNS9_INSA_ILl1EEEdNS7_5l_endEEEEEEEEENS8_ISE_EEEENS1_14invoke_visitorINS1_7printerISoEEEEPKvNS_7variantIiSsdNS1_5void_ESS_SS_SS_SS_SS_SS_SS_SS_SS_SS_SS_SS_SS_SS_SS_SS_E18has_fallback_type_EEENT1_11result_typeEiiRSV_T2_NS3_5bool_ILb0EEET3_PT_PT0_,comdat
	.align 4
	.align 4
.L64:
	.long	.L44
	.long	.L45
	.long	.L46
	.long	.L63
	.long	.L63
	.long	.L63
	.long	.L63
	.long	.L63
	.long	.L63
	.long	.L63
	.long	.L63
	.long	.L63
	.long	.L63
	.long	.L63
	.long	.L63
	.long	.L63
	.long	.L63
	.long	.L63
	.long	.L63
	.long	.L63
	.section	.text._ZN5boost6detail7variant15visitation_implIN4mpl_4int_ILi0EEENS1_20visitation_impl_stepINS_3mpl6l_iterINS7_6l_itemINS3_5long_ILl3EEEiNS9_INSA_ILl2EEESsNS9_INSA_ILl1EEEdNS7_5l_endEEEEEEEEENS8_ISE_EEEENS1_14invoke_visitorINS1_7printerISoEEEEPKvNS_7variantIiSsdNS1_5void_ESS_SS_SS_SS_SS_SS_SS_SS_SS_SS_SS_SS_SS_SS_SS_SS_E18has_fallback_type_EEENT1_11result_typeEiiRSV_T2_NS3_5bool_ILb0EEET3_PT_PT0_,"axG",@progbits,_ZN5boost6detail7variant15visitation_implIN4mpl_4int_ILi0EEENS1_20visitation_impl_stepINS_3mpl6l_iterINS7_6l_itemINS3_5long_ILl3EEEiNS9_INSA_ILl2EEESsNS9_INSA_ILl1EEEdNS7_5l_endEEEEEEEEENS8_ISE_EEEENS1_14invoke_visitorINS1_7printerISoEEEEPKvNS_7variantIiSsdNS1_5void_ESS_SS_SS_SS_SS_SS_SS_SS_SS_SS_SS_SS_SS_SS_SS_SS_E18has_fallback_type_EEENT1_11result_typeEiiRSV_T2_NS3_5bool_ILb0EEET3_PT_PT0_,comdat
.L44:
	movl	(%edx), %edx
	movl	%edx, 12(%ebp)
	movl	(%eax), %eax
	movl	%eax, 8(%ebp)
	leave
	.cfi_remember_state
	.cfi_restore 5
	.cfi_def_cfa 4, 4
	jmp	_ZNSolsEi
.L45:
	.cfi_restore_state
	movl	%edx, 12(%ebp)
	movl	(%eax), %eax
	movl	%eax, 8(%ebp)
	leave
	.cfi_remember_state
	.cfi_restore 5
	.cfi_def_cfa 4, 4
	jmp	_ZStlsIcSt11char_traitsIcESaIcEERSt13basic_ostreamIT_T0_ES7_RKSbIS4_S5_T1_E
.L46:
	.cfi_restore_state
	fldl	(%edx)
	fstpl	12(%ebp)
	movl	(%eax), %eax
	movl	%eax, 8(%ebp)
	leave
	.cfi_remember_state
	.cfi_restore 5
	.cfi_def_cfa 4, 4
	jmp	_ZNSo9_M_insertIdEERSoT_
.L63:
	.cfi_restore_state
	call	_ZN5boost6detail7variant22visitation_impl_invokeINS1_14invoke_visitorINS1_7printerISoEEEEPKvNS_7variantIiSsdNS1_5void_ESA_SA_SA_SA_SA_SA_SA_SA_SA_SA_SA_SA_SA_SA_SA_SA_E18has_fallback_type_EEENT_11result_typeEiRSD_T0_PNS1_22apply_visitor_unrolledET1_l.isra.52
.L43:
	pushl	$_ZZN5boost6detail7variant15visitation_implIN4mpl_4int_ILi20EEENS1_20visitation_impl_stepINS_3mpl6l_iterINS7_5l_endEEESA_EENS1_14invoke_visitorINS1_7printerISoEEEEPKvNS_7variantIiSsdNS1_5void_ESJ_SJ_SJ_SJ_SJ_SJ_SJ_SJ_SJ_SJ_SJ_SJ_SJ_SJ_SJ_SJ_E18has_fallback_type_EEENT1_11result_typeEiiRSM_T2_NS3_5bool_ILb1EEET3_PT_PT0_E19__PRETTY_FUNCTION__
	.cfi_escape 0x2e,0x4
	pushl	$203
	.cfi_escape 0x2e,0x8
	pushl	$.LC0
	.cfi_escape 0x2e,0xc
	pushl	$.LC1
	.cfi_escape 0x2e,0x10
	call	__assert_fail
	.cfi_escape 0x2e,0
	.cfi_endproc
.LFE2074:
	.size	_ZN5boost6detail7variant15visitation_implIN4mpl_4int_ILi0EEENS1_20visitation_impl_stepINS_3mpl6l_iterINS7_6l_itemINS3_5long_ILl3EEEiNS9_INSA_ILl2EEESsNS9_INSA_ILl1EEEdNS7_5l_endEEEEEEEEENS8_ISE_EEEENS1_14invoke_visitorINS1_7printerISoEEEEPKvNS_7variantIiSsdNS1_5void_ESS_SS_SS_SS_SS_SS_SS_SS_SS_SS_SS_SS_SS_SS_SS_SS_E18has_fallback_type_EEENT1_11result_typeEiiRSV_T2_NS3_5bool_ILb0EEET3_PT_PT0_, .-_ZN5boost6detail7variant15visitation_implIN4mpl_4int_ILi0EEENS1_20visitation_impl_stepINS_3mpl6l_iterINS7_6l_itemINS3_5long_ILl3EEEiNS9_INSA_ILl2EEESsNS9_INSA_ILl1EEEdNS7_5l_endEEEEEEEEENS8_ISE_EEEENS1_14invoke_visitorINS1_7printerISoEEEEPKvNS_7variantIiSsdNS1_5void_ESS_SS_SS_SS_SS_SS_SS_SS_SS_SS_SS_SS_SS_SS_SS_SS_E18has_fallback_type_EEENT1_11result_typeEiiRSV_T2_NS3_5bool_ILb0EEET3_PT_PT0_
	.section	.text._ZN5boost6detail7variant15visitation_implIN4mpl_4int_ILi0EEENS1_20visitation_impl_stepINS_3mpl6l_iterINS7_6l_itemINS3_5long_ILl3EEEiNS9_INSA_ILl2EEESsNS9_INSA_ILl1EEEdNS7_5l_endEEEEEEEEENS8_ISE_EEEENS_7variantIiSsdNS1_5void_ESM_SM_SM_SM_SM_SM_SM_SM_SM_SM_SM_SM_SM_SM_SM_SM_E17convert_copy_intoEPvNSN_18has_fallback_type_EEENT1_11result_typeEiiRSR_T2_NS3_5bool_ILb0EEET3_PT_PT0_,"axG",@progbits,_ZN5boost6detail7variant15visitation_implIN4mpl_4int_ILi0EEENS1_20visitation_impl_stepINS_3mpl6l_iterINS7_6l_itemINS3_5long_ILl3EEEiNS9_INSA_ILl2EEESsNS9_INSA_ILl1EEEdNS7_5l_endEEEEEEEEENS8_ISE_EEEENS_7variantIiSsdNS1_5void_ESM_SM_SM_SM_SM_SM_SM_SM_SM_SM_SM_SM_SM_SM_SM_SM_E17convert_copy_intoEPvNSN_18has_fallback_type_EEENT1_11result_typeEiiRSR_T2_NS3_5bool_ILb0EEET3_PT_PT0_,comdat
	.weak	_ZN5boost6detail7variant15visitation_implIN4mpl_4int_ILi0EEENS1_20visitation_impl_stepINS_3mpl6l_iterINS7_6l_itemINS3_5long_ILl3EEEiNS9_INSA_ILl2EEESsNS9_INSA_ILl1EEEdNS7_5l_endEEEEEEEEENS8_ISE_EEEENS_7variantIiSsdNS1_5void_ESM_SM_SM_SM_SM_SM_SM_SM_SM_SM_SM_SM_SM_SM_SM_SM_E17convert_copy_intoEPvNSN_18has_fallback_type_EEENT1_11result_typeEiiRSR_T2_NS3_5bool_ILb0EEET3_PT_PT0_
	.type	_ZN5boost6detail7variant15visitation_implIN4mpl_4int_ILi0EEENS1_20visitation_impl_stepINS_3mpl6l_iterINS7_6l_itemINS3_5long_ILl3EEEiNS9_INSA_ILl2EEESsNS9_INSA_ILl1EEEdNS7_5l_endEEEEEEEEENS8_ISE_EEEENS_7variantIiSsdNS1_5void_ESM_SM_SM_SM_SM_SM_SM_SM_SM_SM_SM_SM_SM_SM_SM_SM_E17convert_copy_intoEPvNSN_18has_fallback_type_EEENT1_11result_typeEiiRSR_T2_NS3_5bool_ILb0EEET3_PT_PT0_, @function
_ZN5boost6detail7variant15visitation_implIN4mpl_4int_ILi0EEENS1_20visitation_impl_stepINS_3mpl6l_iterINS7_6l_itemINS3_5long_ILl3EEEiNS9_INSA_ILl2EEESsNS9_INSA_ILl1EEEdNS7_5l_endEEEEEEEEENS8_ISE_EEEENS_7variantIiSsdNS1_5void_ESM_SM_SM_SM_SM_SM_SM_SM_SM_SM_SM_SM_SM_SM_SM_SM_E17convert_copy_intoEPvNSN_18has_fallback_type_EEENT1_11result_typeEiiRSR_T2_NS3_5bool_ILb0EEET3_PT_PT0_:
.LFB2103:
	.cfi_startproc
	pushl	%ebp
	.cfi_def_cfa_offset 8
	.cfi_offset 5, -8
	movl	%esp, %ebp
	.cfi_def_cfa_register 5
	pushl	%ebx
	pushl	%ebx
	movl	12(%ebp), %ecx
	movl	20(%ebp), %eax
	cmpl	$19, %ecx
	ja	.L66
	.cfi_offset 3, -12
	movl	16(%ebp), %edx
	movl	(%edx), %edx
	jmp	*.L87(,%ecx,4)
	.section	.rodata._ZN5boost6detail7variant15visitation_implIN4mpl_4int_ILi0EEENS1_20visitation_impl_stepINS_3mpl6l_iterINS7_6l_itemINS3_5long_ILl3EEEiNS9_INSA_ILl2EEESsNS9_INSA_ILl1EEEdNS7_5l_endEEEEEEEEENS8_ISE_EEEENS_7variantIiSsdNS1_5void_ESM_SM_SM_SM_SM_SM_SM_SM_SM_SM_SM_SM_SM_SM_SM_SM_E17convert_copy_intoEPvNSN_18has_fallback_type_EEENT1_11result_typeEiiRSR_T2_NS3_5bool_ILb0EEET3_PT_PT0_,"aG",@progbits,_ZN5boost6detail7variant15visitation_implIN4mpl_4int_ILi0EEENS1_20visitation_impl_stepINS_3mpl6l_iterINS7_6l_itemINS3_5long_ILl3EEEiNS9_INSA_ILl2EEESsNS9_INSA_ILl1EEEdNS7_5l_endEEEEEEEEENS8_ISE_EEEENS_7variantIiSsdNS1_5void_ESM_SM_SM_SM_SM_SM_SM_SM_SM_SM_SM_SM_SM_SM_SM_SM_E17convert_copy_intoEPvNSN_18has_fallback_type_EEENT1_11result_typeEiiRSR_T2_NS3_5bool_ILb0EEET3_PT_PT0_,comdat
	.align 4
	.align 4
.L87:
	.long	.L67
	.long	.L68
	.long	.L69
	.long	.L86
	.long	.L86
	.long	.L86
	.long	.L86
	.long	.L86
	.long	.L86
	.long	.L86
	.long	.L86
	.long	.L86
	.long	.L86
	.long	.L86
	.long	.L86
	.long	.L86
	.long	.L86
	.long	.L86
	.long	.L86
	.long	.L86
	.section	.text._ZN5boost6detail7variant15visitation_implIN4mpl_4int_ILi0EEENS1_20visitation_impl_stepINS_3mpl6l_iterINS7_6l_itemINS3_5long_ILl3EEEiNS9_INSA_ILl2EEESsNS9_INSA_ILl1EEEdNS7_5l_endEEEEEEEEENS8_ISE_EEEENS_7variantIiSsdNS1_5void_ESM_SM_SM_SM_SM_SM_SM_SM_SM_SM_SM_SM_SM_SM_SM_SM_E17convert_copy_intoEPvNSN_18has_fallback_type_EEENT1_11result_typeEiiRSR_T2_NS3_5bool_ILb0EEET3_PT_PT0_,"axG",@progbits,_ZN5boost6detail7variant15visitation_implIN4mpl_4int_ILi0EEENS1_20visitation_impl_stepINS_3mpl6l_iterINS7_6l_itemINS3_5long_ILl3EEEiNS9_INSA_ILl2EEESsNS9_INSA_ILl1EEEdNS7_5l_endEEEEEEEEENS8_ISE_EEEENS_7variantIiSsdNS1_5void_ESM_SM_SM_SM_SM_SM_SM_SM_SM_SM_SM_SM_SM_SM_SM_SM_E17convert_copy_intoEPvNSN_18has_fallback_type_EEENT1_11result_typeEiiRSR_T2_NS3_5bool_ILb0EEET3_PT_PT0_,comdat
.L67:
	xorl	%ebx, %ebx
	testl	%edx, %edx
	movl	(%eax), %eax
	je	.L88
	movl	%eax, (%edx)
	jmp	.L88
.L68:
	testl	%edx, %edx
	movl	$1, %ebx
	je	.L88
	pushl	%ecx
	.cfi_escape 0x2e,0x4
	pushl	%ecx
	.cfi_escape 0x2e,0x8
	pushl	%eax
	.cfi_escape 0x2e,0xc
	pushl	%edx
	.cfi_escape 0x2e,0x10
	call	_ZNSsC1ERKSs
	addl	$16, %esp
	.cfi_escape 0x2e,0
	jmp	.L88
.L69:
	testl	%edx, %edx
	movl	$2, %ebx
	je	.L88
	fldl	(%eax)
	fstpl	(%edx)
	jmp	.L88
.L86:
	call	_ZN5boost6detail7variant22visitation_impl_invokeINS_7variantIiSsdNS1_5void_ES4_S4_S4_S4_S4_S4_S4_S4_S4_S4_S4_S4_S4_S4_S4_S4_E17convert_copy_intoEPvNS5_18has_fallback_type_EEENT_11result_typeEiRS9_T0_PNS1_22apply_visitor_unrolledET1_l.isra.55
.L66:
	pushl	$_ZZN5boost6detail7variant15visitation_implIN4mpl_4int_ILi20EEENS1_20visitation_impl_stepINS_3mpl6l_iterINS7_5l_endEEESA_EENS_7variantIiSsdNS1_5void_ESD_SD_SD_SD_SD_SD_SD_SD_SD_SD_SD_SD_SD_SD_SD_SD_E17convert_copy_intoEPvNSE_18has_fallback_type_EEENT1_11result_typeEiiRSI_T2_NS3_5bool_ILb1EEET3_PT_PT0_E19__PRETTY_FUNCTION__
	.cfi_escape 0x2e,0x4
	pushl	$203
	.cfi_escape 0x2e,0x8
	pushl	$.LC0
	.cfi_escape 0x2e,0xc
	pushl	$.LC1
	.cfi_escape 0x2e,0x10
	call	__assert_fail
	.cfi_escape 0x2e,0
.L88:
	movl	%ebx, %eax
	movl	-4(%ebp), %ebx
	leave
	.cfi_restore 5
	.cfi_def_cfa 4, 4
	.cfi_restore 3
	ret
	.cfi_endproc
.LFE2103:
	.size	_ZN5boost6detail7variant15visitation_implIN4mpl_4int_ILi0EEENS1_20visitation_impl_stepINS_3mpl6l_iterINS7_6l_itemINS3_5long_ILl3EEEiNS9_INSA_ILl2EEESsNS9_INSA_ILl1EEEdNS7_5l_endEEEEEEEEENS8_ISE_EEEENS_7variantIiSsdNS1_5void_ESM_SM_SM_SM_SM_SM_SM_SM_SM_SM_SM_SM_SM_SM_SM_SM_E17convert_copy_intoEPvNSN_18has_fallback_type_EEENT1_11result_typeEiiRSR_T2_NS3_5bool_ILb0EEET3_PT_PT0_, .-_ZN5boost6detail7variant15visitation_implIN4mpl_4int_ILi0EEENS1_20visitation_impl_stepINS_3mpl6l_iterINS7_6l_itemINS3_5long_ILl3EEEiNS9_INSA_ILl2EEESsNS9_INSA_ILl1EEEdNS7_5l_endEEEEEEEEENS8_ISE_EEEENS_7variantIiSsdNS1_5void_ESM_SM_SM_SM_SM_SM_SM_SM_SM_SM_SM_SM_SM_SM_SM_SM_E17convert_copy_intoEPvNSN_18has_fallback_type_EEENT1_11result_typeEiiRSR_T2_NS3_5bool_ILb0EEET3_PT_PT0_
	.section	.text._ZN5boost6detail7variant15visitation_implIN4mpl_4int_ILi0EEENS1_20visitation_impl_stepINS_3mpl6l_iterINS7_6l_itemINS3_5long_ILl3EEEiNS9_INSA_ILl2EEESsNS9_INSA_ILl1EEEdNS7_5l_endEEEEEEEEENS8_ISE_EEEENS1_9copy_intoEPKvNS_7variantIiSsdNS1_5void_ESP_SP_SP_SP_SP_SP_SP_SP_SP_SP_SP_SP_SP_SP_SP_SP_E18has_fallback_type_EEENT1_11result_typeEiiRSS_T2_NS3_5bool_ILb0EEET3_PT_PT0_,"axG",@progbits,_ZN5boost6detail7variant15visitation_implIN4mpl_4int_ILi0EEENS1_20visitation_impl_stepINS_3mpl6l_iterINS7_6l_itemINS3_5long_ILl3EEEiNS9_INSA_ILl2EEESsNS9_INSA_ILl1EEEdNS7_5l_endEEEEEEEEENS8_ISE_EEEENS1_9copy_intoEPKvNS_7variantIiSsdNS1_5void_ESP_SP_SP_SP_SP_SP_SP_SP_SP_SP_SP_SP_SP_SP_SP_SP_E18has_fallback_type_EEENT1_11result_typeEiiRSS_T2_NS3_5bool_ILb0EEET3_PT_PT0_,comdat
	.weak	_ZN5boost6detail7variant15visitation_implIN4mpl_4int_ILi0EEENS1_20visitation_impl_stepINS_3mpl6l_iterINS7_6l_itemINS3_5long_ILl3EEEiNS9_INSA_ILl2EEESsNS9_INSA_ILl1EEEdNS7_5l_endEEEEEEEEENS8_ISE_EEEENS1_9copy_intoEPKvNS_7variantIiSsdNS1_5void_ESP_SP_SP_SP_SP_SP_SP_SP_SP_SP_SP_SP_SP_SP_SP_SP_E18has_fallback_type_EEENT1_11result_typeEiiRSS_T2_NS3_5bool_ILb0EEET3_PT_PT0_
	.type	_ZN5boost6detail7variant15visitation_implIN4mpl_4int_ILi0EEENS1_20visitation_impl_stepINS_3mpl6l_iterINS7_6l_itemINS3_5long_ILl3EEEiNS9_INSA_ILl2EEESsNS9_INSA_ILl1EEEdNS7_5l_endEEEEEEEEENS8_ISE_EEEENS1_9copy_intoEPKvNS_7variantIiSsdNS1_5void_ESP_SP_SP_SP_SP_SP_SP_SP_SP_SP_SP_SP_SP_SP_SP_SP_E18has_fallback_type_EEENT1_11result_typeEiiRSS_T2_NS3_5bool_ILb0EEET3_PT_PT0_, @function
_ZN5boost6detail7variant15visitation_implIN4mpl_4int_ILi0EEENS1_20visitation_impl_stepINS_3mpl6l_iterINS7_6l_itemINS3_5long_ILl3EEEiNS9_INSA_ILl2EEESsNS9_INSA_ILl1EEEdNS7_5l_endEEEEEEEEENS8_ISE_EEEENS1_9copy_intoEPKvNS_7variantIiSsdNS1_5void_ESP_SP_SP_SP_SP_SP_SP_SP_SP_SP_SP_SP_SP_SP_SP_SP_E18has_fallback_type_EEENT1_11result_typeEiiRSS_T2_NS3_5bool_ILb0EEET3_PT_PT0_:
.LFB2148:
	.cfi_startproc
	pushl	%ebp
	.cfi_def_cfa_offset 8
	.cfi_offset 5, -8
	movl	%esp, %ebp
	.cfi_def_cfa_register 5
	subl	$8, %esp
	movl	12(%ebp), %ecx
	movl	16(%ebp), %eax
	movl	20(%ebp), %edx
	cmpl	$19, %ecx
	ja	.L93
	movl	(%eax), %eax
	jmp	*.L114(,%ecx,4)
	.section	.rodata._ZN5boost6detail7variant15visitation_implIN4mpl_4int_ILi0EEENS1_20visitation_impl_stepINS_3mpl6l_iterINS7_6l_itemINS3_5long_ILl3EEEiNS9_INSA_ILl2EEESsNS9_INSA_ILl1EEEdNS7_5l_endEEEEEEEEENS8_ISE_EEEENS1_9copy_intoEPKvNS_7variantIiSsdNS1_5void_ESP_SP_SP_SP_SP_SP_SP_SP_SP_SP_SP_SP_SP_SP_SP_SP_E18has_fallback_type_EEENT1_11result_typeEiiRSS_T2_NS3_5bool_ILb0EEET3_PT_PT0_,"aG",@progbits,_ZN5boost6detail7variant15visitation_implIN4mpl_4int_ILi0EEENS1_20visitation_impl_stepINS_3mpl6l_iterINS7_6l_itemINS3_5long_ILl3EEEiNS9_INSA_ILl2EEESsNS9_INSA_ILl1EEEdNS7_5l_endEEEEEEEEENS8_ISE_EEEENS1_9copy_intoEPKvNS_7variantIiSsdNS1_5void_ESP_SP_SP_SP_SP_SP_SP_SP_SP_SP_SP_SP_SP_SP_SP_SP_E18has_fallback_type_EEENT1_11result_typeEiiRSS_T2_NS3_5bool_ILb0EEET3_PT_PT0_,comdat
	.align 4
	.align 4
.L114:
	.long	.L94
	.long	.L95
	.long	.L96
	.long	.L113
	.long	.L113
	.long	.L113
	.long	.L113
	.long	.L113
	.long	.L113
	.long	.L113
	.long	.L113
	.long	.L113
	.long	.L113
	.long	.L113
	.long	.L113
	.long	.L113
	.long	.L113
	.long	.L113
	.long	.L113
	.long	.L113
	.section	.text._ZN5boost6detail7variant15visitation_implIN4mpl_4int_ILi0EEENS1_20visitation_impl_stepINS_3mpl6l_iterINS7_6l_itemINS3_5long_ILl3EEEiNS9_INSA_ILl2EEESsNS9_INSA_ILl1EEEdNS7_5l_endEEEEEEEEENS8_ISE_EEEENS1_9copy_intoEPKvNS_7variantIiSsdNS1_5void_ESP_SP_SP_SP_SP_SP_SP_SP_SP_SP_SP_SP_SP_SP_SP_SP_E18has_fallback_type_EEENT1_11result_typeEiiRSS_T2_NS3_5bool_ILb0EEET3_PT_PT0_,"axG",@progbits,_ZN5boost6detail7variant15visitation_implIN4mpl_4int_ILi0EEENS1_20visitation_impl_stepINS_3mpl6l_iterINS7_6l_itemINS3_5long_ILl3EEEiNS9_INSA_ILl2EEESsNS9_INSA_ILl1EEEdNS7_5l_endEEEEEEEEENS8_ISE_EEEENS1_9copy_intoEPKvNS_7variantIiSsdNS1_5void_ESP_SP_SP_SP_SP_SP_SP_SP_SP_SP_SP_SP_SP_SP_SP_SP_E18has_fallback_type_EEENT1_11result_typeEiiRSS_T2_NS3_5bool_ILb0EEET3_PT_PT0_,comdat
.L94:
	testl	%eax, %eax
	je	.L92
	movl	(%edx), %edx
	movl	%edx, (%eax)
	jmp	.L92
.L95:
	testl	%eax, %eax
	je	.L92
	movl	%edx, 12(%ebp)
	movl	%eax, 8(%ebp)
	leave
	.cfi_remember_state
	.cfi_restore 5
	.cfi_def_cfa 4, 4
	jmp	_ZNSsC1ERKSs
.L96:
	.cfi_restore_state
	testl	%eax, %eax
	je	.L92
	fldl	(%edx)
	fstpl	(%eax)
	jmp	.L92
.L113:
	call	_ZN5boost6detail7variant22visitation_impl_invokeINS1_9copy_intoEPKvNS_7variantIiSsdNS1_5void_ES7_S7_S7_S7_S7_S7_S7_S7_S7_S7_S7_S7_S7_S7_S7_S7_E18has_fallback_type_EEENT_11result_typeEiRSA_T0_PNS1_22apply_visitor_unrolledET1_l.isra.89
.L93:
	pushl	$_ZZN5boost6detail7variant15visitation_implIN4mpl_4int_ILi20EEENS1_20visitation_impl_stepINS_3mpl6l_iterINS7_5l_endEEESA_EENS1_9copy_intoEPKvNS_7variantIiSsdNS1_5void_ESG_SG_SG_SG_SG_SG_SG_SG_SG_SG_SG_SG_SG_SG_SG_SG_E18has_fallback_type_EEENT1_11result_typeEiiRSJ_T2_NS3_5bool_ILb1EEET3_PT_PT0_E19__PRETTY_FUNCTION__
	.cfi_escape 0x2e,0x4
	pushl	$203
	.cfi_escape 0x2e,0x8
	pushl	$.LC0
	.cfi_escape 0x2e,0xc
	pushl	$.LC1
	.cfi_escape 0x2e,0x10
	call	__assert_fail
	.cfi_escape 0x2e,0
.L92:
	leave
	.cfi_restore 5
	.cfi_def_cfa 4, 4
	ret
	.cfi_endproc
.LFE2148:
	.size	_ZN5boost6detail7variant15visitation_implIN4mpl_4int_ILi0EEENS1_20visitation_impl_stepINS_3mpl6l_iterINS7_6l_itemINS3_5long_ILl3EEEiNS9_INSA_ILl2EEESsNS9_INSA_ILl1EEEdNS7_5l_endEEEEEEEEENS8_ISE_EEEENS1_9copy_intoEPKvNS_7variantIiSsdNS1_5void_ESP_SP_SP_SP_SP_SP_SP_SP_SP_SP_SP_SP_SP_SP_SP_SP_E18has_fallback_type_EEENT1_11result_typeEiiRSS_T2_NS3_5bool_ILb0EEET3_PT_PT0_, .-_ZN5boost6detail7variant15visitation_implIN4mpl_4int_ILi0EEENS1_20visitation_impl_stepINS_3mpl6l_iterINS7_6l_itemINS3_5long_ILl3EEEiNS9_INSA_ILl2EEESsNS9_INSA_ILl1EEEdNS7_5l_endEEEEEEEEENS8_ISE_EEEENS1_9copy_intoEPKvNS_7variantIiSsdNS1_5void_ESP_SP_SP_SP_SP_SP_SP_SP_SP_SP_SP_SP_SP_SP_SP_SP_E18has_fallback_type_EEENT1_11result_typeEiiRSS_T2_NS3_5bool_ILb0EEET3_PT_PT0_
	.section	.text._ZNSt20__uninitialized_copyILb0EE13__uninit_copyIPKN5boost7variantIiSsdNS2_6detail7variant5void_ES6_S6_S6_S6_S6_S6_S6_S6_S6_S6_S6_S6_S6_S6_S6_S6_EEPS7_EET0_T_SC_SB_,"axG",@progbits,_ZNSt20__uninitialized_copyILb0EE13__uninit_copyIPKN5boost7variantIiSsdNS2_6detail7variant5void_ES6_S6_S6_S6_S6_S6_S6_S6_S6_S6_S6_S6_S6_S6_S6_S6_EEPS7_EET0_T_SC_SB_,comdat
	.weak	_ZNSt20__uninitialized_copyILb0EE13__uninit_copyIPKN5boost7variantIiSsdNS2_6detail7variant5void_ES6_S6_S6_S6_S6_S6_S6_S6_S6_S6_S6_S6_S6_S6_S6_S6_EEPS7_EET0_T_SC_SB_
	.type	_ZNSt20__uninitialized_copyILb0EE13__uninit_copyIPKN5boost7variantIiSsdNS2_6detail7variant5void_ES6_S6_S6_S6_S6_S6_S6_S6_S6_S6_S6_S6_S6_S6_S6_S6_EEPS7_EET0_T_SC_SB_, @function
_ZNSt20__uninitialized_copyILb0EE13__uninit_copyIPKN5boost7variantIiSsdNS2_6detail7variant5void_ES6_S6_S6_S6_S6_S6_S6_S6_S6_S6_S6_S6_S6_S6_S6_S6_EEPS7_EET0_T_SC_SB_:
.LFB2087:
	.cfi_startproc
	.cfi_personality 0,__gxx_personality_v0
	.cfi_lsda 0,.LLSDA2087
	pushl	%ebp
	.cfi_def_cfa_offset 8
	.cfi_offset 5, -8
	movl	%esp, %ebp
	.cfi_def_cfa_register 5
	pushl	%edi
	pushl	%esi
	pushl	%ebx
	subl	$28, %esp
	movl	16(%ebp), %edi
	.cfi_offset 3, -20
	.cfi_offset 6, -16
	.cfi_offset 7, -12
	movl	8(%ebp), %esi
	movl	%edi, %ebx
	jmp	.L117
.L122:
	testl	%ebx, %ebx
	je	.L121
	leal	4(%ebx), %eax
	movl	%eax, -28(%ebp)
	movl	(%esi), %eax
	leal	4(%esi), %ecx
	pushl	$0
	.cfi_escape 0x2e,0x4
	pushl	$0
	.cfi_escape 0x2e,0x8
	pushl	$0
	.cfi_escape 0x2e,0xc
	pushl	$0
	.cfi_escape 0x2e,0x10
	cltd
	pushl	%ecx
	.cfi_escape 0x2e,0x14
	xorl	%eax, %edx
	leal	-28(%ebp), %ecx
	pushl	%ecx
	.cfi_escape 0x2e,0x18
	pushl	%edx
	.cfi_escape 0x2e,0x1c
	pushl	%eax
	.cfi_escape 0x2e,0x20
.LEHB0:
	call	_ZN5boost6detail7variant15visitation_implIN4mpl_4int_ILi0EEENS1_20visitation_impl_stepINS_3mpl6l_iterINS7_6l_itemINS3_5long_ILl3EEEiNS9_INSA_ILl2EEESsNS9_INSA_ILl1EEEdNS7_5l_endEEEEEEEEENS8_ISE_EEEENS1_9copy_intoEPKvNS_7variantIiSsdNS1_5void_ESP_SP_SP_SP_SP_SP_SP_SP_SP_SP_SP_SP_SP_SP_SP_SP_E18has_fallback_type_EEENT1_11result_typeEiiRSS_T2_NS3_5bool_ILb0EEET3_PT_PT0_
.LEHE0:
	movl	(%esi), %eax
	addl	$32, %esp
	.cfi_escape 0x2e,0
	cltd
	xorl	%edx, %eax
	movl	%eax, (%ebx)
.L121:
	addl	$12, %esi
	addl	$12, %ebx
.L117:
	cmpl	12(%ebp), %esi
	jne	.L122
	leal	-12(%ebp), %esp
	movl	%ebx, %eax
	popl	%ebx
	.cfi_remember_state
	.cfi_restore 3
	popl	%esi
	.cfi_restore 6
	popl	%edi
	.cfi_restore 7
	popl	%ebp
	.cfi_def_cfa 4, 4
	.cfi_restore 5
	ret
.L129:
	.cfi_restore_state
	movl	%eax, %ebx
	call	__cxa_end_catch
	subl	$12, %esp
	.cfi_escape 0x2e,0xc
	pushl	%ebx
	.cfi_escape 0x2e,0x10
.LEHB1:
	call	_Unwind_Resume
.LEHE1:
	.cfi_escape 0x2e,0
.L128:
	subl	$12, %esp
	.cfi_escape 0x2e,0xc
	pushl	%eax
	.cfi_escape 0x2e,0x10
	call	__cxa_begin_catch
	jmp	.L130
	.cfi_escape 0x2e,0
.L126:
	subl	$12, %esp
	.cfi_escape 0x2e,0xc
	pushl	%edi
	.cfi_escape 0x2e,0x10
	addl	$12, %edi
	call	_ZN5boost7variantIiSsdNS_6detail7variant5void_ES3_S3_S3_S3_S3_S3_S3_S3_S3_S3_S3_S3_S3_S3_S3_S3_ED1Ev
.L130:
	addl	$16, %esp
	.cfi_escape 0x2e,0
	cmpl	%ebx, %edi
	jne	.L126
.LEHB2:
	call	__cxa_rethrow
.LEHE2:
	.cfi_endproc
.LFE2087:
	.globl	__gxx_personality_v0
	.section	.gcc_except_table,"a",@progbits
	.align 4
.LLSDA2087:
	.byte	0xff
	.byte	0
	.uleb128 .LLSDATT2087-.LLSDATTD2087
.LLSDATTD2087:
	.byte	0x1
	.uleb128 .LLSDACSE2087-.LLSDACSB2087
.LLSDACSB2087:
	.uleb128 .LEHB0-.LFB2087
	.uleb128 .LEHE0-.LEHB0
	.uleb128 .L128-.LFB2087
	.uleb128 0x1
	.uleb128 .LEHB1-.LFB2087
	.uleb128 .LEHE1-.LEHB1
	.uleb128 0
	.uleb128 0
	.uleb128 .LEHB2-.LFB2087
	.uleb128 .LEHE2-.LEHB2
	.uleb128 .L129-.LFB2087
	.uleb128 0
.LLSDACSE2087:
	.byte	0x1
	.byte	0
	.align 4
	.long	0
.LLSDATT2087:
	.section	.text._ZNSt20__uninitialized_copyILb0EE13__uninit_copyIPKN5boost7variantIiSsdNS2_6detail7variant5void_ES6_S6_S6_S6_S6_S6_S6_S6_S6_S6_S6_S6_S6_S6_S6_S6_EEPS7_EET0_T_SC_SB_,"axG",@progbits,_ZNSt20__uninitialized_copyILb0EE13__uninit_copyIPKN5boost7variantIiSsdNS2_6detail7variant5void_ES6_S6_S6_S6_S6_S6_S6_S6_S6_S6_S6_S6_S6_S6_S6_S6_EEPS7_EET0_T_SC_SB_,comdat
	.size	_ZNSt20__uninitialized_copyILb0EE13__uninit_copyIPKN5boost7variantIiSsdNS2_6detail7variant5void_ES6_S6_S6_S6_S6_S6_S6_S6_S6_S6_S6_S6_S6_S6_S6_S6_EEPS7_EET0_T_SC_SB_, .-_ZNSt20__uninitialized_copyILb0EE13__uninit_copyIPKN5boost7variantIiSsdNS2_6detail7variant5void_ES6_S6_S6_S6_S6_S6_S6_S6_S6_S6_S6_S6_S6_S6_S6_S6_EEPS7_EET0_T_SC_SB_
	.section	.rodata.str1.1
.LC3:
	.string	" "
	.section	.text._Z7printlnIIiSsdEEvDpRKT_,"axG",@progbits,_Z7printlnIIiSsdEEvDpRKT_,comdat
	.weak	_Z7printlnIIiSsdEEvDpRKT_
	.type	_Z7printlnIIiSsdEEvDpRKT_, @function
_Z7printlnIIiSsdEEvDpRKT_:
.LFB1845:
	.cfi_startproc
	.cfi_personality 0,__gxx_personality_v0
	.cfi_lsda 0,.LLSDA1845
	pushl	%ebp
	.cfi_def_cfa_offset 8
	.cfi_offset 5, -8
	movl	$9, %ecx
	movl	%esp, %ebp
	.cfi_def_cfa_register 5
	pushl	%edi
	pushl	%esi
	pushl	%ebx
	subl	$116, %esp
	.cfi_escape 0x2e,0x8
	.cfi_offset 3, -20
	.cfi_offset 6, -16
	.cfi_offset 7, -12
	movl	16(%ebp), %ebx
	movl	%gs:20, %eax
	movl	%eax, -28(%ebp)
	xorl	%eax, %eax
	leal	-100(%ebp), %edi
	rep stosl
	movl	8(%ebp), %eax
	movl	(%eax), %eax
	pushl	12(%ebp)
	.cfi_escape 0x2e,0xc
	movl	%eax, -96(%ebp)
	leal	-84(%ebp), %eax
	pushl	%eax
	.cfi_escape 0x2e,0x10
.LEHB3:
	call	_ZNSsC1ERKSs
.LEHE3:
	movl	$1, -88(%ebp)
	movl	$2, -76(%ebp)
	movl	$0, -64(%ebp)
	movl	$0, -60(%ebp)
	movl	$0, -56(%ebp)
	fldl	(%ebx)
	fstpl	-72(%ebp)
	movl	$36, (%esp)
.LEHB4:
	call	_Znwj
	addl	$12, %esp
	.cfi_escape 0x2e,0x4
	leal	36(%eax), %edx
	pushl	%eax
	.cfi_escape 0x2e,0x8
	movl	%edx, -56(%ebp)
	leal	-64(%ebp), %edx
	movl	%eax, -64(%ebp)
	leal	-100(%ebp), %eax
	pushl	%edx
	.cfi_escape 0x2e,0xc
	pushl	%eax
	.cfi_escape 0x2e,0x10
	call	_ZNSt20__uninitialized_copyILb0EE13__uninit_copyIPKN5boost7variantIiSsdNS2_6detail7variant5void_ES6_S6_S6_S6_S6_S6_S6_S6_S6_S6_S6_S6_S6_S6_S6_S6_EEPS7_EET0_T_SC_SB_
.LEHE4:
	movl	%eax, -60(%ebp)
	leal	-76(%ebp), %eax
	movl	%eax, (%esp)
	leal	-100(%ebp), %ebx
	call	_ZN5boost7variantIiSsdNS_6detail7variant5void_ES3_S3_S3_S3_S3_S3_S3_S3_S3_S3_S3_S3_S3_S3_S3_S3_ED1Ev
	leal	-88(%ebp), %eax
	movl	%eax, (%esp)
	leal	-52(%ebp), %esi
	call	_ZN5boost7variantIiSsdNS_6detail7variant5void_ES3_S3_S3_S3_S3_S3_S3_S3_S3_S3_S3_S3_S3_S3_S3_S3_ED1Ev
	movl	%ebx, (%esp)
	leal	-36(%ebp), %ebx
	call	_ZN5boost7variantIiSsdNS_6detail7variant5void_ES3_S3_S3_S3_S3_S3_S3_S3_S3_S3_S3_S3_S3_S3_S3_S3_ED1Ev
	movl	-60(%ebp), %eax
	addl	$16, %esp
	.cfi_escape 0x2e,0
	movl	-64(%ebp), %edi
	movl	%eax, -108(%ebp)
	jmp	.L139
.L154:
	movl	-64(%ebp), %edx
	movl	%eax, %ebx
	testl	%edx, %edx
	je	.L137
	subl	$12, %esp
	.cfi_escape 0x2e,0xc
	pushl	%edx
	.cfi_escape 0x2e,0x10
	call	_ZdlPv
	addl	$16, %esp
	.cfi_escape 0x2e,0
.L137:
	subl	$12, %esp
	.cfi_escape 0x2e,0xc
	leal	-76(%ebp), %eax
	pushl	%eax
	.cfi_escape 0x2e,0x10
	call	_ZN5boost7variantIiSsdNS_6detail7variant5void_ES3_S3_S3_S3_S3_S3_S3_S3_S3_S3_S3_S3_S3_S3_S3_S3_ED1Ev
	leal	-100(%ebp), %esi
	leal	-88(%ebp), %eax
	movl	%eax, (%esp)
	call	_ZN5boost7variantIiSsdNS_6detail7variant5void_ES3_S3_S3_S3_S3_S3_S3_S3_S3_S3_S3_S3_S3_S3_S3_S3_ED1Ev
	movl	%esi, (%esp)
	call	_ZN5boost7variantIiSsdNS_6detail7variant5void_ES3_S3_S3_S3_S3_S3_S3_S3_S3_S3_S3_S3_S3_S3_S3_S3_ED1Ev
	jmp	.L156
	.cfi_escape 0x2e,0
.L146:
	movl	(%edi), %eax
	leal	4(%edi), %ecx
	pushl	$0
	.cfi_escape 0x2e,0x4
	pushl	$0
	.cfi_escape 0x2e,0x8
	pushl	$0
	.cfi_escape 0x2e,0xc
	pushl	$0
	.cfi_escape 0x2e,0x10
	cltd
	pushl	%ecx
	.cfi_escape 0x2e,0x14
	xorl	%eax, %edx
	pushl	%esi
	.cfi_escape 0x2e,0x18
	pushl	%edx
	.cfi_escape 0x2e,0x1c
	pushl	%eax
	.cfi_escape 0x2e,0x20
	movl	%ebx, -52(%ebp)
.LEHB5:
	call	_ZN5boost6detail7variant15visitation_implIN4mpl_4int_ILi0EEENS1_20visitation_impl_stepINS_3mpl6l_iterINS7_6l_itemINS3_5long_ILl3EEEiNS9_INSA_ILl2EEESsNS9_INSA_ILl1EEEdNS7_5l_endEEEEEEEEENS8_ISE_EEEENS_7variantIiSsdNS1_5void_ESM_SM_SM_SM_SM_SM_SM_SM_SM_SM_SM_SM_SM_SM_SM_SM_E17convert_copy_intoEPvNSN_18has_fallback_type_EEENT1_11result_typeEiiRSR_T2_NS3_5bool_ILb0EEET3_PT_PT0_
.LEHE5:
	addl	$32, %esp
	.cfi_escape 0x2e,0
	pushl	$0
	.cfi_escape 0x2e,0x4
	pushl	$0
	.cfi_escape 0x2e,0x8
	pushl	$0
	.cfi_escape 0x2e,0xc
	pushl	$0
	.cfi_escape 0x2e,0x10
	leal	-48(%ebp), %edx
	pushl	%ebx
	.cfi_escape 0x2e,0x14
	leal	-44(%ebp), %ecx
	movl	%edx, -44(%ebp)
	cltd
	pushl	%ecx
	.cfi_escape 0x2e,0x18
	xorl	%eax, %edx
	pushl	%edx
	.cfi_escape 0x2e,0x1c
	pushl	%eax
	.cfi_escape 0x2e,0x20
	movl	%eax, -40(%ebp)
	movl	$_ZSt4cout, -48(%ebp)
.LEHB6:
	call	_ZN5boost6detail7variant15visitation_implIN4mpl_4int_ILi0EEENS1_20visitation_impl_stepINS_3mpl6l_iterINS7_6l_itemINS3_5long_ILl3EEEiNS9_INSA_ILl2EEESsNS9_INSA_ILl1EEEdNS7_5l_endEEEEEEEEENS8_ISE_EEEENS1_14invoke_visitorINS1_7printerISoEEEEPKvNS_7variantIiSsdNS1_5void_ESS_SS_SS_SS_SS_SS_SS_SS_SS_SS_SS_SS_SS_SS_SS_SS_E18has_fallback_type_EEENT1_11result_typeEiiRSV_T2_NS3_5bool_ILb0EEET3_PT_PT0_
	addl	$24, %esp
	.cfi_escape 0x2e,0x8
	pushl	$.LC3
	.cfi_escape 0x2e,0xc
	pushl	$_ZSt4cout
	.cfi_escape 0x2e,0x10
	call	_ZStlsISt11char_traitsIcEERSt13basic_ostreamIcT_ES5_PKc
.LEHE6:
	leal	-40(%ebp), %eax
	addl	$12, %edi
	movl	%eax, (%esp)
	call	_ZN5boost7variantIiSsdNS_6detail7variant5void_ES3_S3_S3_S3_S3_S3_S3_S3_S3_S3_S3_S3_S3_S3_S3_S3_ED1Ev
	addl	$16, %esp
	.cfi_escape 0x2e,0
.L139:
	cmpl	-108(%ebp), %edi
	jne	.L146
	subl	$12, %esp
	.cfi_escape 0x2e,0xc
	leal	-64(%ebp), %eax
	pushl	%eax
	.cfi_escape 0x2e,0x10
	call	_ZNSt6vectorIN5boost7variantIiSsdNS0_6detail7variant5void_ES4_S4_S4_S4_S4_S4_S4_S4_S4_S4_S4_S4_S4_S4_S4_S4_EESaIS5_EED1Ev
	movl	$_ZSt4cout, (%esp)
.LEHB7:
	call	_ZSt4endlIcSt11char_traitsIcEERSt13basic_ostreamIT_T0_ES6_
	movl	-28(%ebp), %eax
	xorl	%gs:20, %eax
	je	.L149
	jmp	.L157
	.cfi_escape 0x2e,0
.L153:
	subl	$12, %esp
	.cfi_escape 0x2e,0xc
	movl	%eax, %ebx
	leal	-40(%ebp), %eax
	pushl	%eax
	.cfi_escape 0x2e,0x10
	call	_ZN5boost7variantIiSsdNS_6detail7variant5void_ES3_S3_S3_S3_S3_S3_S3_S3_S3_S3_S3_S3_S3_S3_S3_S3_ED1Ev
	addl	$16, %esp
	.cfi_escape 0x2e,0
	jmp	.L148
.L152:
	movl	%eax, %ebx
.L148:
	subl	$12, %esp
	.cfi_escape 0x2e,0xc
	leal	-64(%ebp), %eax
	pushl	%eax
	.cfi_escape 0x2e,0x10
	call	_ZNSt6vectorIN5boost7variantIiSsdNS0_6detail7variant5void_ES4_S4_S4_S4_S4_S4_S4_S4_S4_S4_S4_S4_S4_S4_S4_S4_EESaIS5_EED1Ev
.L156:
	movl	%ebx, (%esp)
	call	_Unwind_Resume
.LEHE7:
.L157:
	call	__stack_chk_fail
.L149:
	leal	-12(%ebp), %esp
	popl	%ebx
	.cfi_restore 3
	popl	%esi
	.cfi_restore 6
	popl	%edi
	.cfi_restore 7
	popl	%ebp
	.cfi_def_cfa 4, 4
	.cfi_restore 5
	ret
	.cfi_def_cfa_offset -12
	.cfi_escape 0x2e,0
	.cfi_endproc
.LFE1845:
	.section	.gcc_except_table
.LLSDA1845:
	.byte	0xff
	.byte	0xff
	.byte	0x1
	.uleb128 .LLSDACSE1845-.LLSDACSB1845
.LLSDACSB1845:
	.uleb128 .LEHB3-.LFB1845
	.uleb128 .LEHE3-.LEHB3
	.uleb128 0
	.uleb128 0
	.uleb128 .LEHB4-.LFB1845
	.uleb128 .LEHE4-.LEHB4
	.uleb128 .L154-.LFB1845
	.uleb128 0
	.uleb128 .LEHB5-.LFB1845
	.uleb128 .LEHE5-.LEHB5
	.uleb128 .L152-.LFB1845
	.uleb128 0
	.uleb128 .LEHB6-.LFB1845
	.uleb128 .LEHE6-.LEHB6
	.uleb128 .L153-.LFB1845
	.uleb128 0
	.uleb128 .LEHB7-.LFB1845
	.uleb128 .LEHE7-.LEHB7
	.uleb128 0
	.uleb128 0
.LLSDACSE1845:
	.section	.text._Z7printlnIIiSsdEEvDpRKT_,"axG",@progbits,_Z7printlnIIiSsdEEvDpRKT_,comdat
	.size	_Z7printlnIIiSsdEEvDpRKT_, .-_Z7printlnIIiSsdEEvDpRKT_
	.section	.rodata.str1.1
.LC4:
	.string	"foo"
	.section	.text.startup,"ax",@progbits
	.globl	main
	.type	main, @function
main:
.LFB1773:
	.cfi_startproc
	.cfi_personality 0,__gxx_personality_v0
	.cfi_lsda 0,.LLSDA1773
	leal	4(%esp), %ecx
	.cfi_def_cfa 1, 0
	andl	$-16, %esp
	pushl	-4(%ecx)
	pushl	%ebp
	movl	%esp, %ebp
	.cfi_escape 0x10,0x5,0x2,0x75,0
	pushl	%esi
	pushl	%ebx
	pushl	%ecx
	.cfi_escape 0xf,0x3,0x75,0x74,0x6
	.cfi_escape 0x10,0x3,0x2,0x75,0x78
	.cfi_escape 0x10,0x6,0x2,0x75,0x7c
	subl	$48, %esp
	.cfi_escape 0x2e,0x4
	leal	-25(%ebp), %eax
	pushl	%eax
	.cfi_escape 0x2e,0x8
	pushl	$.LC4
	.cfi_escape 0x2e,0xc
	leal	-36(%ebp), %ebx
	pushl	%ebx
	.cfi_escape 0x2e,0x10
.LEHB8:
	call	_ZNSsC1EPKcRKSaIcE
.LEHE8:
	addl	$12, %esp
	.cfi_escape 0x2e,0x4
	leal	-48(%ebp), %eax
	pushl	%eax
	.cfi_escape 0x2e,0x8
	pushl	%ebx
	.cfi_escape 0x2e,0xc
	leal	-32(%ebp), %eax
	pushl	%eax
	.cfi_escape 0x2e,0x10
	movl	$-858993459, -48(%ebp)
	movl	$1075956940, -44(%ebp)
	movl	$5, -32(%ebp)
.LEHB9:
	call	_Z7printlnIIiSsdEEvDpRKT_
.LEHE9:
	movl	%ebx, (%esp)
	call	_ZNSsD1Ev
	leal	-12(%ebp), %esp
	xorl	%eax, %eax
	popl	%ecx
	.cfi_remember_state
	.cfi_def_cfa 1, 0
	.cfi_restore 1
	popl	%ebx
	.cfi_restore 3
	popl	%esi
	.cfi_restore 6
	popl	%ebp
	.cfi_restore 5
	leal	-4(%ecx), %esp
	.cfi_def_cfa 4, 4
	ret
	.cfi_def_cfa 4, -12
	.cfi_escape 0x2e,0
.L162:
	.cfi_restore_state
	subl	$12, %esp
	.cfi_escape 0x2e,0xc
	movl	%eax, %esi
	pushl	%ebx
	.cfi_escape 0x2e,0x10
	call	_ZNSsD1Ev
	movl	%esi, (%esp)
.LEHB10:
	call	_Unwind_Resume
.LEHE10:
	.cfi_escape 0x2e,0
	.cfi_endproc
.LFE1773:
	.section	.gcc_except_table
.LLSDA1773:
	.byte	0xff
	.byte	0xff
	.byte	0x1
	.uleb128 .LLSDACSE1773-.LLSDACSB1773
.LLSDACSB1773:
	.uleb128 .LEHB8-.LFB1773
	.uleb128 .LEHE8-.LEHB8
	.uleb128 0
	.uleb128 0
	.uleb128 .LEHB9-.LFB1773
	.uleb128 .LEHE9-.LEHB9
	.uleb128 .L162-.LFB1773
	.uleb128 0
	.uleb128 .LEHB10-.LFB1773
	.uleb128 .LEHE10-.LEHB10
	.uleb128 0
	.uleb128 0
.LLSDACSE1773:
	.section	.text.startup
	.size	main, .-main
	.type	_GLOBAL__sub_I_main, @function
_GLOBAL__sub_I_main:
.LFB2161:
	.cfi_startproc
	pushl	%ebp
	.cfi_def_cfa_offset 8
	.cfi_offset 5, -8
	movl	%esp, %ebp
	.cfi_def_cfa_register 5
	subl	$20, %esp
	.cfi_escape 0x2e,0xc
	pushl	$_ZStL8__ioinit
	.cfi_escape 0x2e,0x10
	call	_ZNSt8ios_base4InitC1Ev
	addl	$12, %esp
	.cfi_escape 0x2e,0x4
	pushl	$__dso_handle
	.cfi_escape 0x2e,0x8
	pushl	$_ZStL8__ioinit
	.cfi_escape 0x2e,0xc
	pushl	$_ZNSt8ios_base4InitD1Ev
	.cfi_escape 0x2e,0x10
	call	__cxa_atexit
	addl	$16, %esp
	.cfi_escape 0x2e,0
	leave
	.cfi_restore 5
	.cfi_def_cfa 4, 4
	ret
	.cfi_endproc
.LFE2161:
	.size	_GLOBAL__sub_I_main, .-_GLOBAL__sub_I_main
	.section	.ctors,"aw",@progbits
	.align 4
	.long	_GLOBAL__sub_I_main
	.section	.rodata
	.align 4
	.type	_ZZN5boost6detail7variant15visitation_implIN4mpl_4int_ILi20EEENS1_20visitation_impl_stepINS_3mpl6l_iterINS7_5l_endEEESA_EENS1_9copy_intoEPKvNS_7variantIiSsdNS1_5void_ESG_SG_SG_SG_SG_SG_SG_SG_SG_SG_SG_SG_SG_SG_SG_SG_E18has_fallback_type_EEENT1_11result_typeEiiRSJ_T2_NS3_5bool_ILb1EEET3_PT_PT0_E19__PRETTY_FUNCTION__, @object
	.size	_ZZN5boost6detail7variant15visitation_implIN4mpl_4int_ILi20EEENS1_20visitation_impl_stepINS_3mpl6l_iterINS7_5l_endEEESA_EENS1_9copy_intoEPKvNS_7variantIiSsdNS1_5void_ESG_SG_SG_SG_SG_SG_SG_SG_SG_SG_SG_SG_SG_SG_SG_SG_E18has_fallback_type_EEENT1_11result_typeEiiRSJ_T2_NS3_5bool_ILb1EEET3_PT_PT0_E19__PRETTY_FUNCTION__, 493
_ZZN5boost6detail7variant15visitation_implIN4mpl_4int_ILi20EEENS1_20visitation_impl_stepINS_3mpl6l_iterINS7_5l_endEEESA_EENS1_9copy_intoEPKvNS_7variantIiSsdNS1_5void_ESG_SG_SG_SG_SG_SG_SG_SG_SG_SG_SG_SG_SG_SG_SG_SG_E18has_fallback_type_EEENT1_11result_typeEiiRSJ_T2_NS3_5bool_ILb1EEET3_PT_PT0_E19__PRETTY_FUNCTION__:
	.ascii	"typename Visitor::result_type boost::detail::variant::visita"
	.ascii	"tion_impl(int, int, Visitor&, VPCV, mpl_::true_, NBF, W*, S*"
	.ascii	") [with W = mpl_::int_<20>, S = boost::detail::variant::visi"
	.ascii	"tation_impl_step<boost::mpl::l_iter<boost::mpl::l_end>, "
	.string	"boost::mpl::l_iter<boost::mpl::l_end> >, Visitor = boost::detail::variant::copy_into, VPCV = const void*, NBF = boost::variant<int, std::basic_string<char>, double>::has_fallback_type_, typename Visitor::result_type = void, mpl_::true_ = mpl_::bool_<true>]"
	.align 4
	.type	_ZZN5boost6detail7variant22visitation_impl_invokeINS1_9copy_intoEPKvNS_7variantIiSsdNS1_5void_ES7_S7_S7_S7_S7_S7_S7_S7_S7_S7_S7_S7_S7_S7_S7_S7_E18has_fallback_type_EEENT_11result_typeEiRSA_T0_PNS1_22apply_visitor_unrolledET1_lE19__PRETTY_FUNCTION__, @object
	.size	_ZZN5boost6detail7variant22visitation_impl_invokeINS1_9copy_intoEPKvNS_7variantIiSsdNS1_5void_ES7_S7_S7_S7_S7_S7_S7_S7_S7_S7_S7_S7_S7_S7_S7_S7_E18has_fallback_type_EEENT_11result_typeEiRSA_T0_PNS1_22apply_visitor_unrolledET1_lE19__PRETTY_FUNCTION__, 361
_ZZN5boost6detail7variant22visitation_impl_invokeINS1_9copy_intoEPKvNS_7variantIiSsdNS1_5void_ES7_S7_S7_S7_S7_S7_S7_S7_S7_S7_S7_S7_S7_S7_S7_S7_E18has_fallback_type_EEENT_11result_typeEiRSA_T0_PNS1_22apply_visitor_unrolledET1_lE19__PRETTY_FUNCTION__:
	.ascii	"typename Visitor::result_type boost::detail::variant::visita"
	.ascii	"tion_impl_invoke(int, Visitor&, VoidPtrCV, b"
	.string	"oost::detail::variant::apply_visitor_unrolled*, NBF, long int) [with Visitor = boost::detail::variant::copy_into, VoidPtrCV = const void*, NBF = boost::variant<int, std::basic_string<char>, double>::has_fallback_type_, typename Visitor::result_type = void]"
	.align 4
	.type	_ZZN5boost6detail7variant15visitation_implIN4mpl_4int_ILi20EEENS1_20visitation_impl_stepINS_3mpl6l_iterINS7_5l_endEEESA_EENS_7variantIiSsdNS1_5void_ESD_SD_SD_SD_SD_SD_SD_SD_SD_SD_SD_SD_SD_SD_SD_SD_E17convert_copy_intoEPvNSE_18has_fallback_type_EEENT1_11result_typeEiiRSI_T2_NS3_5bool_ILb1EEET3_PT_PT0_E19__PRETTY_FUNCTION__, @object
	.size	_ZZN5boost6detail7variant15visitation_implIN4mpl_4int_ILi20EEENS1_20visitation_impl_stepINS_3mpl6l_iterINS7_5l_endEEESA_EENS_7variantIiSsdNS1_5void_ESD_SD_SD_SD_SD_SD_SD_SD_SD_SD_SD_SD_SD_SD_SD_SD_E17convert_copy_intoEPvNSE_18has_fallback_type_EEENT1_11result_typeEiiRSI_T2_NS3_5bool_ILb1EEET3_PT_PT0_E19__PRETTY_FUNCTION__, 524
_ZZN5boost6detail7variant15visitation_implIN4mpl_4int_ILi20EEENS1_20visitation_impl_stepINS_3mpl6l_iterINS7_5l_endEEESA_EENS_7variantIiSsdNS1_5void_ESD_SD_SD_SD_SD_SD_SD_SD_SD_SD_SD_SD_SD_SD_SD_SD_E17convert_copy_intoEPvNSE_18has_fallback_type_EEENT1_11result_typeEiiRSI_T2_NS3_5bool_ILb1EEET3_PT_PT0_E19__PRETTY_FUNCTION__:
	.ascii	"typename Visitor::result_type boost::detail::variant::visita"
	.ascii	"tion_impl(int, int, Visitor&, VPCV, mpl_::true_, NBF, W*, S*"
	.ascii	") [with W = mpl_::int_<20>, S = boost::detail::variant::visi"
	.ascii	"tation_impl_step<boost::mpl::l_iter<boost::mpl::l_end>, boos"
	.ascii	"t::mpl::l_iter<boost::mpl::"
	.string	"l_end> >, Visitor = boost::variant<int, std::basic_string<char>, double>::convert_copy_into, VPCV = void*, NBF = boost::variant<int, std::basic_string<char>, double>::has_fallback_type_, typename Visitor::result_type = int, mpl_::true_ = mpl_::bool_<true>]"
	.align 4
	.type	_ZZN5boost6detail7variant22visitation_impl_invokeINS_7variantIiSsdNS1_5void_ES4_S4_S4_S4_S4_S4_S4_S4_S4_S4_S4_S4_S4_S4_S4_S4_E17convert_copy_intoEPvNS5_18has_fallback_type_EEENT_11result_typeEiRS9_T0_PNS1_22apply_visitor_unrolledET1_lE19__PRETTY_FUNCTION__, @object
	.size	_ZZN5boost6detail7variant22visitation_impl_invokeINS_7variantIiSsdNS1_5void_ES4_S4_S4_S4_S4_S4_S4_S4_S4_S4_S4_S4_S4_S4_S4_S4_E17convert_copy_intoEPvNS5_18has_fallback_type_EEENT_11result_typeEiRS9_T0_PNS1_22apply_visitor_unrolledET1_lE19__PRETTY_FUNCTION__, 392
_ZZN5boost6detail7variant22visitation_impl_invokeINS_7variantIiSsdNS1_5void_ES4_S4_S4_S4_S4_S4_S4_S4_S4_S4_S4_S4_S4_S4_S4_S4_E17convert_copy_intoEPvNS5_18has_fallback_type_EEENT_11result_typeEiRS9_T0_PNS1_22apply_visitor_unrolledET1_lE19__PRETTY_FUNCTION__:
	.ascii	"typename Visitor::result_type boost::detail::variant::visita"
	.ascii	"tion_impl_invoke(int, Visitor&, VoidPtrCV, boost::detail::va"
	.ascii	"riant::apply_vi"
	.string	"sitor_unrolled*, NBF, long int) [with Visitor = boost::variant<int, std::basic_string<char>, double>::convert_copy_into, VoidPtrCV = void*, NBF = boost::variant<int, std::basic_string<char>, double>::has_fallback_type_, typename Visitor::result_type = int]"
	.align 4
	.type	_ZZN5boost6detail7variant15visitation_implIN4mpl_4int_ILi20EEENS1_20visitation_impl_stepINS_3mpl6l_iterINS7_5l_endEEESA_EENS1_14invoke_visitorINS1_7printerISoEEEEPKvNS_7variantIiSsdNS1_5void_ESJ_SJ_SJ_SJ_SJ_SJ_SJ_SJ_SJ_SJ_SJ_SJ_SJ_SJ_SJ_SJ_E18has_fallback_type_EEENT1_11result_typeEiiRSM_T2_NS3_5bool_ILb1EEET3_PT_PT0_E19__PRETTY_FUNCTION__, @object
	.size	_ZZN5boost6detail7variant15visitation_implIN4mpl_4int_ILi20EEENS1_20visitation_impl_stepINS_3mpl6l_iterINS7_5l_endEEESA_EENS1_14invoke_visitorINS1_7printerISoEEEEPKvNS_7variantIiSsdNS1_5void_ESJ_SJ_SJ_SJ_SJ_SJ_SJ_SJ_SJ_SJ_SJ_SJ_SJ_SJ_SJ_SJ_E18has_fallback_type_EEENT1_11result_typeEiiRSM_T2_NS3_5bool_ILb1EEET3_PT_PT0_E19__PRETTY_FUNCTION__, 559
_ZZN5boost6detail7variant15visitation_implIN4mpl_4int_ILi20EEENS1_20visitation_impl_stepINS_3mpl6l_iterINS7_5l_endEEESA_EENS1_14invoke_visitorINS1_7printerISoEEEEPKvNS_7variantIiSsdNS1_5void_ESJ_SJ_SJ_SJ_SJ_SJ_SJ_SJ_SJ_SJ_SJ_SJ_SJ_SJ_SJ_SJ_E18has_fallback_type_EEENT1_11result_typeEiiRSM_T2_NS3_5bool_ILb1EEET3_PT_PT0_E19__PRETTY_FUNCTION__:
	.ascii	"typename Visitor::result_type boost::detail::variant::visita"
	.ascii	"tion_impl(int, int, Visitor&, VPCV, mpl_::true_, NBF, W*, S*"
	.ascii	") [with W = mpl_::int_<20>, S = boost::detail::variant::visi"
	.ascii	"tation_impl_step<boost::mpl::l_iter<boost::mpl::l_end>, boos"
	.ascii	"t::mpl::l_iter<boost::mpl::l_end> >, Visitor = boost::detail"
	.ascii	"::"
	.string	"variant::invoke_visitor<boost::detail::variant::printer<std::basic_ostream<char> > >, VPCV = const void*, NBF = boost::variant<int, std::basic_string<char>, double>::has_fallback_type_, typename Visitor::result_type = void, mpl_::true_ = mpl_::bool_<true>]"
	.align 4
	.type	_ZZN5boost6detail7variant22visitation_impl_invokeINS1_14invoke_visitorINS1_7printerISoEEEEPKvNS_7variantIiSsdNS1_5void_ESA_SA_SA_SA_SA_SA_SA_SA_SA_SA_SA_SA_SA_SA_SA_SA_E18has_fallback_type_EEENT_11result_typeEiRSD_T0_PNS1_22apply_visitor_unrolledET1_lE19__PRETTY_FUNCTION__, @object
	.size	_ZZN5boost6detail7variant22visitation_impl_invokeINS1_14invoke_visitorINS1_7printerISoEEEEPKvNS_7variantIiSsdNS1_5void_ESA_SA_SA_SA_SA_SA_SA_SA_SA_SA_SA_SA_SA_SA_SA_SA_E18has_fallback_type_EEENT_11result_typeEiRSD_T0_PNS1_22apply_visitor_unrolledET1_lE19__PRETTY_FUNCTION__, 427
_ZZN5boost6detail7variant22visitation_impl_invokeINS1_14invoke_visitorINS1_7printerISoEEEEPKvNS_7variantIiSsdNS1_5void_ESA_SA_SA_SA_SA_SA_SA_SA_SA_SA_SA_SA_SA_SA_SA_SA_E18has_fallback_type_EEENT_11result_typeEiRSD_T0_PNS1_22apply_visitor_unrolledET1_lE19__PRETTY_FUNCTION__:
	.ascii	"typename Visitor::result_type boost::detail::variant::visita"
	.ascii	"tion_impl_invoke(int, Visitor&, VoidPtrCV, boost::detail::va"
	.ascii	"riant::apply_visitor_unrolled*, NBF, long int) [wi"
	.string	"th Visitor = boost::detail::variant::invoke_visitor<boost::detail::variant::printer<std::basic_ostream<char> > >, VoidPtrCV = const void*, NBF = boost::variant<int, std::basic_string<char>, double>::has_fallback_type_, typename Visitor::result_type = void]"
	.align 4
	.type	_ZZN5boost6detail7variant15visitation_implIN4mpl_4int_ILi20EEENS1_20visitation_impl_stepINS_3mpl6l_iterINS7_5l_endEEESA_EENS1_9destroyerEPvNS_7variantIiSsdNS1_5void_ESF_SF_SF_SF_SF_SF_SF_SF_SF_SF_SF_SF_SF_SF_SF_SF_E18has_fallback_type_EEENT1_11result_typeEiiRSI_T2_NS3_5bool_ILb1EEET3_PT_PT0_E19__PRETTY_FUNCTION__, @object
	.size	_ZZN5boost6detail7variant15visitation_implIN4mpl_4int_ILi20EEENS1_20visitation_impl_stepINS_3mpl6l_iterINS7_5l_endEEESA_EENS1_9destroyerEPvNS_7variantIiSsdNS1_5void_ESF_SF_SF_SF_SF_SF_SF_SF_SF_SF_SF_SF_SF_SF_SF_SF_E18has_fallback_type_EEENT1_11result_typeEiiRSI_T2_NS3_5bool_ILb1EEET3_PT_PT0_E19__PRETTY_FUNCTION__, 487
_ZZN5boost6detail7variant15visitation_implIN4mpl_4int_ILi20EEENS1_20visitation_impl_stepINS_3mpl6l_iterINS7_5l_endEEESA_EENS1_9destroyerEPvNS_7variantIiSsdNS1_5void_ESF_SF_SF_SF_SF_SF_SF_SF_SF_SF_SF_SF_SF_SF_SF_SF_E18has_fallback_type_EEENT1_11result_typeEiiRSI_T2_NS3_5bool_ILb1EEET3_PT_PT0_E19__PRETTY_FUNCTION__:
	.ascii	"typename Visitor::result_type boost::detail::variant::visita"
	.ascii	"tion_impl(int, int, Visitor&, VPCV, mpl_::true_, NBF, W*, S*"
	.ascii	") [with W = mpl_::int_<20>, S = boost::detail::variant::visi"
	.ascii	"tation_impl_step<boost::mpl::l_iter<boost::mpl::l_"
	.string	"end>, boost::mpl::l_iter<boost::mpl::l_end> >, Visitor = boost::detail::variant::destroyer, VPCV = void*, NBF = boost::variant<int, std::basic_string<char>, double>::has_fallback_type_, typename Visitor::result_type = void, mpl_::true_ = mpl_::bool_<true>]"
	.align 4
	.type	_ZZN5boost6detail7variant22visitation_impl_invokeINS1_9destroyerEPvNS_7variantIiSsdNS1_5void_ES6_S6_S6_S6_S6_S6_S6_S6_S6_S6_S6_S6_S6_S6_S6_S6_E18has_fallback_type_EEENT_11result_typeEiRS9_T0_PNS1_22apply_visitor_unrolledET1_lE19__PRETTY_FUNCTION__, @object
	.size	_ZZN5boost6detail7variant22visitation_impl_invokeINS1_9destroyerEPvNS_7variantIiSsdNS1_5void_ES6_S6_S6_S6_S6_S6_S6_S6_S6_S6_S6_S6_S6_S6_S6_S6_E18has_fallback_type_EEENT_11result_typeEiRS9_T0_PNS1_22apply_visitor_unrolledET1_lE19__PRETTY_FUNCTION__, 355
_ZZN5boost6detail7variant22visitation_impl_invokeINS1_9destroyerEPvNS_7variantIiSsdNS1_5void_ES6_S6_S6_S6_S6_S6_S6_S6_S6_S6_S6_S6_S6_S6_S6_S6_E18has_fallback_type_EEENT_11result_typeEiRS9_T0_PNS1_22apply_visitor_unrolledET1_lE19__PRETTY_FUNCTION__:
	.ascii	"typename Visitor::result_type boost::detail::variant::visita"
	.ascii	"tion_impl_invoke(int, Visitor&, VoidPt"
	.string	"rCV, boost::detail::variant::apply_visitor_unrolled*, NBF, long int) [with Visitor = boost::detail::variant::destroyer, VoidPtrCV = void*, NBF = boost::variant<int, std::basic_string<char>, double>::has_fallback_type_, typename Visitor::result_type = void]"
	.local	_ZStL8__ioinit
	.comm	_ZStL8__ioinit,1,1
	.weakref	_ZL20__gthrw_pthread_oncePiPFvvE,pthread_once
	.weakref	_ZL27__gthrw_pthread_getspecificj,pthread_getspecific
	.weakref	_ZL27__gthrw_pthread_setspecificjPKv,pthread_setspecific
	.weakref	_ZL22__gthrw_pthread_createPmPK14pthread_attr_tPFPvS3_ES3_,pthread_create
	.weakref	_ZL20__gthrw_pthread_joinmPPv,pthread_join
	.weakref	_ZL21__gthrw_pthread_equalmm,pthread_equal
	.weakref	_ZL20__gthrw_pthread_selfv,pthread_self
	.weakref	_ZL22__gthrw_pthread_detachm,pthread_detach
	.weakref	_ZL22__gthrw_pthread_cancelm,pthread_cancel
	.weakref	_ZL19__gthrw_sched_yieldv,sched_yield
	.weakref	_ZL26__gthrw_pthread_mutex_lockP15pthread_mutex_t,pthread_mutex_lock
	.weakref	_ZL29__gthrw_pthread_mutex_trylockP15pthread_mutex_t,pthread_mutex_trylock
	.weakref	_ZL31__gthrw_pthread_mutex_timedlockP15pthread_mutex_tPK8timespec,pthread_mutex_timedlock
	.weakref	_ZL28__gthrw_pthread_mutex_unlockP15pthread_mutex_t,pthread_mutex_unlock
	.weakref	_ZL26__gthrw_pthread_mutex_initP15pthread_mutex_tPK19pthread_mutexattr_t,pthread_mutex_init
	.weakref	_ZL29__gthrw_pthread_mutex_destroyP15pthread_mutex_t,pthread_mutex_destroy
	.weakref	_ZL30__gthrw_pthread_cond_broadcastP14pthread_cond_t,pthread_cond_broadcast
	.weakref	_ZL27__gthrw_pthread_cond_signalP14pthread_cond_t,pthread_cond_signal
	.weakref	_ZL25__gthrw_pthread_cond_waitP14pthread_cond_tP15pthread_mutex_t,pthread_cond_wait
	.weakref	_ZL30__gthrw_pthread_cond_timedwaitP14pthread_cond_tP15pthread_mutex_tPK8timespec,pthread_cond_timedwait
	.weakref	_ZL28__gthrw_pthread_cond_destroyP14pthread_cond_t,pthread_cond_destroy
	.weakref	_ZL26__gthrw_pthread_key_createPjPFvPvE,pthread_key_create
	.weakref	_ZL26__gthrw_pthread_key_deletej,pthread_key_delete
	.weakref	_ZL30__gthrw_pthread_mutexattr_initP19pthread_mutexattr_t,pthread_mutexattr_init
	.weakref	_ZL33__gthrw_pthread_mutexattr_settypeP19pthread_mutexattr_ti,pthread_mutexattr_settype
	.weakref	_ZL33__gthrw_pthread_mutexattr_destroyP19pthread_mutexattr_t,pthread_mutexattr_destroy
	.weak	_ZN5boost7variantIiSsdNS_6detail7variant5void_ES3_S3_S3_S3_S3_S3_S3_S3_S3_S3_S3_S3_S3_S3_S3_S3_ED1Ev
	.set	_ZN5boost7variantIiSsdNS_6detail7variant5void_ES3_S3_S3_S3_S3_S3_S3_S3_S3_S3_S3_S3_S3_S3_S3_S3_ED1Ev,_ZN5boost7variantIiSsdNS_6detail7variant5void_ES3_S3_S3_S3_S3_S3_S3_S3_S3_S3_S3_S3_S3_S3_S3_S3_ED2Ev
	.weak	_ZNSt6vectorIN5boost7variantIiSsdNS0_6detail7variant5void_ES4_S4_S4_S4_S4_S4_S4_S4_S4_S4_S4_S4_S4_S4_S4_S4_EESaIS5_EED1Ev
	.set	_ZNSt6vectorIN5boost7variantIiSsdNS0_6detail7variant5void_ES4_S4_S4_S4_S4_S4_S4_S4_S4_S4_S4_S4_S4_S4_S4_S4_EESaIS5_EED1Ev,_ZNSt6vectorIN5boost7variantIiSsdNS0_6detail7variant5void_ES4_S4_S4_S4_S4_S4_S4_S4_S4_S4_S4_S4_S4_S4_S4_S4_EESaIS5_EED2Ev
	.ident	"GCC: (Ubuntu 4.6.0-3~ppa1) 4.6.1 20110409 (prerelease)"
	.section	.note.GNU-stack,"",@progbits
